C000  4C F5 C5  JMP                             A:00 X:00 Y:00 P:24 SP:FD CYC:  0
C5F5  A2 00     LDX                             A:00 X:00 Y:00 P:24 SP:FD CYC:  9
C5F7  86 00     STX                             A:00 X:00 Y:00 P:26 SP:FD CYC: 15
C5F9  86 10     STX                             A:00 X:00 Y:00 P:26 SP:FD CYC: 24
C5FB  86 11     STX                             A:00 X:00 Y:00 P:26 SP:FD CYC: 33
C5FD  20 2D C7  JSR                             A:00 X:00 Y:00 P:26 SP:FD CYC: 42
C72D  EA        NOP                             A:00 X:00 Y:00 P:26 SP:FB CYC: 60
C72E  38        SEC                             A:00 X:00 Y:00 P:26 SP:FB CYC: 66
C72F  B0 04     BCS                             A:00 X:00 Y:00 P:27 SP:FB CYC: 72
C735  EA        NOP                             A:00 X:00 Y:00 P:27 SP:FB CYC: 81
C736  18        CLC                             A:00 X:00 Y:00 P:27 SP:FB CYC: 87
C737  B0 03     BCS                             A:00 X:00 Y:00 P:26 SP:FB CYC: 93
C739  4C 40 C7  JMP                             A:00 X:00 Y:00 P:26 SP:FB CYC: 99
C740  EA        NOP                             A:00 X:00 Y:00 P:26 SP:FB CYC:108
C741  38        SEC                             A:00 X:00 Y:00 P:26 SP:FB CYC:114
C742  90 03     BCC                             A:00 X:00 Y:00 P:27 SP:FB CYC:120
C744  4C 4B C7  JMP                             A:00 X:00 Y:00 P:27 SP:FB CYC:126
C74B  EA        NOP                             A:00 X:00 Y:00 P:27 SP:FB CYC:135
C74C  18        CLC                             A:00 X:00 Y:00 P:27 SP:FB CYC:141
C74D  90 04     BCC                             A:00 X:00 Y:00 P:26 SP:FB CYC:147
C753  EA        NOP                             A:00 X:00 Y:00 P:26 SP:FB CYC:156
C754  A9 00     LDA                             A:00 X:00 Y:00 P:26 SP:FB CYC:162
C756  F0 04     BEQ                             A:00 X:00 Y:00 P:26 SP:FB CYC:168
C75C  EA        NOP                             A:00 X:00 Y:00 P:26 SP:FB CYC:177
C75D  A9 40     LDA                             A:00 X:00 Y:00 P:26 SP:FB CYC:183
C75F  F0 03     BEQ                             A:40 X:00 Y:00 P:24 SP:FB CYC:189
C761  4C 68 C7  JMP                             A:40 X:00 Y:00 P:24 SP:FB CYC:195
C768  EA        NOP                             A:40 X:00 Y:00 P:24 SP:FB CYC:204
C769  A9 40     LDA                             A:40 X:00 Y:00 P:24 SP:FB CYC:210
C76B  D0 04     BNE                             A:40 X:00 Y:00 P:24 SP:FB CYC:216
C771  EA        NOP                             A:40 X:00 Y:00 P:24 SP:FB CYC:225
C772  A9 00     LDA                             A:40 X:00 Y:00 P:24 SP:FB CYC:231
C774  D0 03     BNE                             A:00 X:00 Y:00 P:26 SP:FB CYC:237
C776  4C 7D C7  JMP                             A:00 X:00 Y:00 P:26 SP:FB CYC:243
C77D  EA        NOP                             A:00 X:00 Y:00 P:26 SP:FB CYC:252
C77E  A9 FF     LDA                             A:00 X:00 Y:00 P:26 SP:FB CYC:258
C780  85 01     STA                             A:FF X:00 Y:00 P:A4 SP:FB CYC:264
C782  24 01     BIT                             A:FF X:00 Y:00 P:A4 SP:FB CYC:273
C784  70 04     BVS                             A:FF X:00 Y:00 P:E4 SP:FB CYC:282
C78A  EA        NOP                             A:FF X:00 Y:00 P:E4 SP:FB CYC:291
C78B  24 01     BIT                             A:FF X:00 Y:00 P:E4 SP:FB CYC:297
C78D  50 03     BVC                             A:FF X:00 Y:00 P:E4 SP:FB CYC:306
C78F  4C 96 C7  JMP                             A:FF X:00 Y:00 P:E4 SP:FB CYC:312
C796  EA        NOP                             A:FF X:00 Y:00 P:E4 SP:FB CYC:321
C797  A9 00     LDA                             A:FF X:00 Y:00 P:E4 SP:FB CYC:327
C799  85 01     STA                             A:00 X:00 Y:00 P:66 SP:FB CYC:333
C79B  24 01     BIT                             A:00 X:00 Y:00 P:66 SP:FB CYC:  1
C79D  50 04     BVC                             A:00 X:00 Y:00 P:26 SP:FB CYC: 10
C7A3  EA        NOP                             A:00 X:00 Y:00 P:26 SP:FB CYC: 19
C7A4  24 01     BIT                             A:00 X:00 Y:00 P:26 SP:FB CYC: 25
C7A6  70 03     BVS                             A:00 X:00 Y:00 P:26 SP:FB CYC: 34
C7A8  4C AF C7  JMP                             A:00 X:00 Y:00 P:26 SP:FB CYC: 40
C7AF  EA        NOP                             A:00 X:00 Y:00 P:26 SP:FB CYC: 49
C7B0  A9 00     LDA                             A:00 X:00 Y:00 P:26 SP:FB CYC: 55
C7B2  10 04     BPL                             A:00 X:00 Y:00 P:26 SP:FB CYC: 61
C7B8  EA        NOP                             A:00 X:00 Y:00 P:26 SP:FB CYC: 70
C7B9  A9 80     LDA                             A:00 X:00 Y:00 P:26 SP:FB CYC: 76
C7BB  10 03     BPL                             A:80 X:00 Y:00 P:A4 SP:FB CYC: 82
C7BD  4C D9 C7  JMP                             A:80 X:00 Y:00 P:A4 SP:FB CYC: 88
C7D9  EA        NOP                             A:80 X:00 Y:00 P:A4 SP:FB CYC: 97
C7DA  60        RTS                             A:80 X:00 Y:00 P:A4 SP:FB CYC:103
C600  20 DB C7  JSR                             A:80 X:00 Y:00 P:A4 SP:FD CYC:121
C7DB  EA        NOP                             A:80 X:00 Y:00 P:A4 SP:FB CYC:139
C7DC  A9 FF     LDA                             A:80 X:00 Y:00 P:A4 SP:FB CYC:145
C7DE  85 01     STA                             A:FF X:00 Y:00 P:A4 SP:FB CYC:151
C7E0  24 01     BIT                             A:FF X:00 Y:00 P:A4 SP:FB CYC:160
C7E2  A9 00     LDA                             A:FF X:00 Y:00 P:E4 SP:FB CYC:169
C7E4  38        SEC                             A:00 X:00 Y:00 P:66 SP:FB CYC:175
C7E5  78        SEI                             A:00 X:00 Y:00 P:67 SP:FB CYC:181
C7E6  F8        SED                             A:00 X:00 Y:00 P:67 SP:FB CYC:187
C7E7  08        PHP                             A:00 X:00 Y:00 P:6F SP:FB CYC:193
C7E8  68        PLA                             A:00 X:00 Y:00 P:6F SP:FA CYC:202
C7E9  29 EF     AND                             A:7F X:00 Y:00 P:6D SP:FB CYC:214
C7EB  C9 6F     CMP                             A:6F X:00 Y:00 P:6D SP:FB CYC:220
C7ED  F0 04     BEQ                             A:6F X:00 Y:00 P:6F SP:FB CYC:226
C7F3  EA        NOP                             A:6F X:00 Y:00 P:6F SP:FB CYC:235
C7F4  A9 40     LDA                             A:6F X:00 Y:00 P:6F SP:FB CYC:241
C7F6  85 01     STA                             A:40 X:00 Y:00 P:6D SP:FB CYC:247
C7F8  24 01     BIT                             A:40 X:00 Y:00 P:6D SP:FB CYC:256
C7FA  D8        CLD                             A:40 X:00 Y:00 P:6D SP:FB CYC:265
C7FB  A9 10     LDA                             A:40 X:00 Y:00 P:65 SP:FB CYC:271
C7FD  18        CLC                             A:10 X:00 Y:00 P:65 SP:FB CYC:277
C7FE  08        PHP                             A:10 X:00 Y:00 P:64 SP:FB CYC:283
C7FF  68        PLA                             A:10 X:00 Y:00 P:64 SP:FA CYC:292
C800  29 EF     AND                             A:74 X:00 Y:00 P:64 SP:FB CYC:304
C802  C9 64     CMP                             A:64 X:00 Y:00 P:64 SP:FB CYC:310
C804  F0 04     BEQ                             A:64 X:00 Y:00 P:67 SP:FB CYC:316
C80A  EA        NOP                             A:64 X:00 Y:00 P:67 SP:FB CYC:325
C80B  A9 80     LDA                             A:64 X:00 Y:00 P:67 SP:FB CYC:331
C80D  85 01     STA                             A:80 X:00 Y:00 P:E5 SP:FB CYC:337
C80F  24 01     BIT                             A:80 X:00 Y:00 P:E5 SP:FB CYC:  5
C811  F8        SED                             A:80 X:00 Y:00 P:A5 SP:FB CYC: 14
C812  A9 00     LDA                             A:80 X:00 Y:00 P:AD SP:FB CYC: 20
C814  38        SEC                             A:00 X:00 Y:00 P:2F SP:FB CYC: 26
C815  08        PHP                             A:00 X:00 Y:00 P:2F SP:FB CYC: 32
C816  68        PLA                             A:00 X:00 Y:00 P:2F SP:FA CYC: 41
C817  29 EF     AND                             A:3F X:00 Y:00 P:2D SP:FB CYC: 53
C819  C9 2F     CMP                             A:2F X:00 Y:00 P:2D SP:FB CYC: 59
C81B  F0 04     BEQ                             A:2F X:00 Y:00 P:2F SP:FB CYC: 65
C821  EA        NOP                             A:2F X:00 Y:00 P:2F SP:FB CYC: 74
C822  A9 FF     LDA                             A:2F X:00 Y:00 P:2F SP:FB CYC: 80
C824  48        PHA                             A:FF X:00 Y:00 P:AD SP:FB CYC: 86
C825  28        PLP                             A:FF X:00 Y:00 P:AD SP:FA CYC: 95
C826  D0 09     BNE                             A:FF X:00 Y:00 P:EF SP:FB CYC:107
C828  10 07     BPL                             A:FF X:00 Y:00 P:EF SP:FB CYC:113
C82A  50 05     BVC                             A:FF X:00 Y:00 P:EF SP:FB CYC:119
C82C  90 03     BCC                             A:FF X:00 Y:00 P:EF SP:FB CYC:125
C82E  4C 35 C8  JMP                             A:FF X:00 Y:00 P:EF SP:FB CYC:131
C835  EA        NOP                             A:FF X:00 Y:00 P:EF SP:FB CYC:140
C836  A9 04     LDA                             A:FF X:00 Y:00 P:EF SP:FB CYC:146
C838  48        PHA                             A:04 X:00 Y:00 P:6D SP:FB CYC:152
C839  28        PLP                             A:04 X:00 Y:00 P:6D SP:FA CYC:161
C83A  F0 09     BEQ                             A:04 X:00 Y:00 P:24 SP:FB CYC:173
C83C  30 07     BMI                             A:04 X:00 Y:00 P:24 SP:FB CYC:179
C83E  70 05     BVS                             A:04 X:00 Y:00 P:24 SP:FB CYC:185
C840  B0 03     BCS                             A:04 X:00 Y:00 P:24 SP:FB CYC:191
C842  4C 49 C8  JMP                             A:04 X:00 Y:00 P:24 SP:FB CYC:197
C849  EA        NOP                             A:04 X:00 Y:00 P:24 SP:FB CYC:206
C84A  F8        SED                             A:04 X:00 Y:00 P:24 SP:FB CYC:212
C84B  A9 FF     LDA                             A:04 X:00 Y:00 P:2C SP:FB CYC:218
C84D  85 01     STA                             A:FF X:00 Y:00 P:AC SP:FB CYC:224
C84F  24 01     BIT                             A:FF X:00 Y:00 P:AC SP:FB CYC:233
C851  18        CLC                             A:FF X:00 Y:00 P:EC SP:FB CYC:242
C852  A9 00     LDA                             A:FF X:00 Y:00 P:EC SP:FB CYC:248
C854  48        PHA                             A:00 X:00 Y:00 P:6E SP:FB CYC:254
C855  A9 FF     LDA                             A:00 X:00 Y:00 P:6E SP:FA CYC:263
C857  68        PLA                             A:FF X:00 Y:00 P:EC SP:FA CYC:269
C858  D0 09     BNE                             A:00 X:00 Y:00 P:6E SP:FB CYC:281
C85A  30 07     BMI                             A:00 X:00 Y:00 P:6E SP:FB CYC:287
C85C  50 05     BVC                             A:00 X:00 Y:00 P:6E SP:FB CYC:293
C85E  B0 03     BCS                             A:00 X:00 Y:00 P:6E SP:FB CYC:299
C860  4C 67 C8  JMP                             A:00 X:00 Y:00 P:6E SP:FB CYC:305
C867  EA        NOP                             A:00 X:00 Y:00 P:6E SP:FB CYC:314
C868  A9 00     LDA                             A:00 X:00 Y:00 P:6E SP:FB CYC:320
C86A  85 01     STA                             A:00 X:00 Y:00 P:6E SP:FB CYC:326
C86C  24 01     BIT                             A:00 X:00 Y:00 P:6E SP:FB CYC:335
C86E  38        SEC                             A:00 X:00 Y:00 P:2E SP:FB CYC:  3
C86F  A9 FF     LDA                             A:00 X:00 Y:00 P:2F SP:FB CYC:  9
C871  48        PHA                             A:FF X:00 Y:00 P:AD SP:FB CYC: 15
C872  A9 00     LDA                             A:FF X:00 Y:00 P:AD SP:FA CYC: 24
C874  68        PLA                             A:00 X:00 Y:00 P:2F SP:FA CYC: 30
C875  F0 09     BEQ                             A:FF X:00 Y:00 P:AD SP:FB CYC: 42
C877  10 07     BPL                             A:FF X:00 Y:00 P:AD SP:FB CYC: 48
C879  70 05     BVS                             A:FF X:00 Y:00 P:AD SP:FB CYC: 54
C87B  90 03     BCC                             A:FF X:00 Y:00 P:AD SP:FB CYC: 60
C87D  4C 84 C8  JMP                             A:FF X:00 Y:00 P:AD SP:FB CYC: 66
C884  60        RTS                             A:FF X:00 Y:00 P:AD SP:FB CYC: 75
C603  20 85 C8  JSR                             A:FF X:00 Y:00 P:AD SP:FD CYC: 93
C885  EA        NOP                             A:FF X:00 Y:00 P:AD SP:FB CYC:111
C886  18        CLC                             A:FF X:00 Y:00 P:AD SP:FB CYC:117
C887  A9 FF     LDA                             A:FF X:00 Y:00 P:AC SP:FB CYC:123
C889  85 01     STA                             A:FF X:00 Y:00 P:AC SP:FB CYC:129
C88B  24 01     BIT                             A:FF X:00 Y:00 P:AC SP:FB CYC:138
C88D  A9 55     LDA                             A:FF X:00 Y:00 P:EC SP:FB CYC:147
C88F  09 AA     ORA                             A:55 X:00 Y:00 P:6C SP:FB CYC:153
C891  B0 0B     BCS                             A:FF X:00 Y:00 P:EC SP:FB CYC:159
C893  10 09     BPL                             A:FF X:00 Y:00 P:EC SP:FB CYC:165
C895  C9 FF     CMP                             A:FF X:00 Y:00 P:EC SP:FB CYC:171
C897  D0 05     BNE                             A:FF X:00 Y:00 P:6F SP:FB CYC:177
C899  50 03     BVC                             A:FF X:00 Y:00 P:6F SP:FB CYC:183
C89B  4C A2 C8  JMP                             A:FF X:00 Y:00 P:6F SP:FB CYC:189
C8A2  EA        NOP                             A:FF X:00 Y:00 P:6F SP:FB CYC:198
C8A3  38        SEC                             A:FF X:00 Y:00 P:6F SP:FB CYC:204
C8A4  B8        CLV                             A:FF X:00 Y:00 P:6F SP:FB CYC:210
C8A5  A9 00     LDA                             A:FF X:00 Y:00 P:2F SP:FB CYC:216
C8A7  09 00     ORA                             A:00 X:00 Y:00 P:2F SP:FB CYC:222
C8A9  D0 09     BNE                             A:00 X:00 Y:00 P:2F SP:FB CYC:228
C8AB  70 07     BVS                             A:00 X:00 Y:00 P:2F SP:FB CYC:234
C8AD  90 05     BCC                             A:00 X:00 Y:00 P:2F SP:FB CYC:240
C8AF  30 03     BMI                             A:00 X:00 Y:00 P:2F SP:FB CYC:246
C8B1  4C B8 C8  JMP                             A:00 X:00 Y:00 P:2F SP:FB CYC:252
C8B8  EA        NOP                             A:00 X:00 Y:00 P:2F SP:FB CYC:261
C8B9  18        CLC                             A:00 X:00 Y:00 P:2F SP:FB CYC:267
C8BA  24 01     BIT                             A:00 X:00 Y:00 P:2E SP:FB CYC:273
C8BC  A9 55     LDA                             A:00 X:00 Y:00 P:EE SP:FB CYC:282
C8BE  29 AA     AND                             A:55 X:00 Y:00 P:6C SP:FB CYC:288
C8C0  D0 09     BNE                             A:00 X:00 Y:00 P:6E SP:FB CYC:294
C8C2  50 07     BVC                             A:00 X:00 Y:00 P:6E SP:FB CYC:300
C8C4  B0 05     BCS                             A:00 X:00 Y:00 P:6E SP:FB CYC:306
C8C6  30 03     BMI                             A:00 X:00 Y:00 P:6E SP:FB CYC:312
C8C8  4C CF C8  JMP                             A:00 X:00 Y:00 P:6E SP:FB CYC:318
C8CF  EA        NOP                             A:00 X:00 Y:00 P:6E SP:FB CYC:327
C8D0  38        SEC                             A:00 X:00 Y:00 P:6E SP:FB CYC:333
C8D1  B8        CLV                             A:00 X:00 Y:00 P:6F SP:FB CYC:339
C8D2  A9 F8     LDA                             A:00 X:00 Y:00 P:2F SP:FB CYC:  4
C8D4  29 EF     AND                             A:F8 X:00 Y:00 P:AD SP:FB CYC: 10
C8D6  90 0B     BCC                             A:E8 X:00 Y:00 P:AD SP:FB CYC: 16
C8D8  10 09     BPL                             A:E8 X:00 Y:00 P:AD SP:FB CYC: 22
C8DA  C9 E8     CMP                             A:E8 X:00 Y:00 P:AD SP:FB CYC: 28
C8DC  D0 05     BNE                             A:E8 X:00 Y:00 P:2F SP:FB CYC: 34
C8DE  70 03     BVS                             A:E8 X:00 Y:00 P:2F SP:FB CYC: 40
C8E0  4C E7 C8  JMP                             A:E8 X:00 Y:00 P:2F SP:FB CYC: 46
C8E7  EA        NOP                             A:E8 X:00 Y:00 P:2F SP:FB CYC: 55
C8E8  18        CLC                             A:E8 X:00 Y:00 P:2F SP:FB CYC: 61
C8E9  24 01     BIT                             A:E8 X:00 Y:00 P:2E SP:FB CYC: 67
C8EB  A9 5F     LDA                             A:E8 X:00 Y:00 P:EC SP:FB CYC: 76
C8ED  49 AA     EOR                             A:5F X:00 Y:00 P:6C SP:FB CYC: 82
C8EF  B0 0B     BCS                             A:F5 X:00 Y:00 P:EC SP:FB CYC: 88
C8F1  10 09     BPL                             A:F5 X:00 Y:00 P:EC SP:FB CYC: 94
C8F3  C9 F5     CMP                             A:F5 X:00 Y:00 P:EC SP:FB CYC:100
C8F5  D0 05     BNE                             A:F5 X:00 Y:00 P:6F SP:FB CYC:106
C8F7  50 03     BVC                             A:F5 X:00 Y:00 P:6F SP:FB CYC:112
C8F9  4C 00 C9  JMP                             A:F5 X:00 Y:00 P:6F SP:FB CYC:118
C900  EA        NOP                             A:F5 X:00 Y:00 P:6F SP:FB CYC:127
C901  38        SEC                             A:F5 X:00 Y:00 P:6F SP:FB CYC:133
C902  B8        CLV                             A:F5 X:00 Y:00 P:6F SP:FB CYC:139
C903  A9 70     LDA                             A:F5 X:00 Y:00 P:2F SP:FB CYC:145
C905  49 70     EOR                             A:70 X:00 Y:00 P:2D SP:FB CYC:151
C907  D0 09     BNE                             A:00 X:00 Y:00 P:2F SP:FB CYC:157
C909  70 07     BVS                             A:00 X:00 Y:00 P:2F SP:FB CYC:163
C90B  90 05     BCC                             A:00 X:00 Y:00 P:2F SP:FB CYC:169
C90D  30 03     BMI                             A:00 X:00 Y:00 P:2F SP:FB CYC:175
C90F  4C 16 C9  JMP                             A:00 X:00 Y:00 P:2F SP:FB CYC:181
C916  EA        NOP                             A:00 X:00 Y:00 P:2F SP:FB CYC:190
C917  18        CLC                             A:00 X:00 Y:00 P:2F SP:FB CYC:196
C918  24 01     BIT                             A:00 X:00 Y:00 P:2E SP:FB CYC:202
C91A  A9 00     LDA                             A:00 X:00 Y:00 P:EE SP:FB CYC:211
C91C  69 69     ADC                             A:00 X:00 Y:00 P:6E SP:FB CYC:217
C91E  30 0B     BMI                             A:69 X:00 Y:00 P:2C SP:FB CYC:223
C920  B0 09     BCS                             A:69 X:00 Y:00 P:2C SP:FB CYC:229
C922  C9 69     CMP                             A:69 X:00 Y:00 P:2C SP:FB CYC:235
C924  D0 05     BNE                             A:69 X:00 Y:00 P:2F SP:FB CYC:241
C926  70 03     BVS                             A:69 X:00 Y:00 P:2F SP:FB CYC:247
C928  4C 2F C9  JMP                             A:69 X:00 Y:00 P:2F SP:FB CYC:253
C92F  EA        NOP                             A:69 X:00 Y:00 P:2F SP:FB CYC:262
C930  38        SEC                             A:69 X:00 Y:00 P:2F SP:FB CYC:268
C931  F8        SED                             A:69 X:00 Y:00 P:2F SP:FB CYC:274
C932  24 01     BIT                             A:69 X:00 Y:00 P:2F SP:FB CYC:280
C934  A9 01     LDA                             A:69 X:00 Y:00 P:ED SP:FB CYC:289
C936  69 69     ADC                             A:01 X:00 Y:00 P:6D SP:FB CYC:295
C938  30 0B     BMI                             A:6B X:00 Y:00 P:2C SP:FB CYC:301
C93A  B0 09     BCS                             A:6B X:00 Y:00 P:2C SP:FB CYC:307
C93C  C9 6B     CMP                             A:6B X:00 Y:00 P:2C SP:FB CYC:313
C93E  D0 05     BNE                             A:6B X:00 Y:00 P:2F SP:FB CYC:319
C940  70 03     BVS                             A:6B X:00 Y:00 P:2F SP:FB CYC:325
C942  4C 49 C9  JMP                             A:6B X:00 Y:00 P:2F SP:FB CYC:331
C949  EA        NOP                             A:6B X:00 Y:00 P:2F SP:FB CYC:340
C94A  D8        CLD                             A:6B X:00 Y:00 P:2F SP:FB CYC:  5
C94B  38        SEC                             A:6B X:00 Y:00 P:27 SP:FB CYC: 11
C94C  B8        CLV                             A:6B X:00 Y:00 P:27 SP:FB CYC: 17
C94D  A9 7F     LDA                             A:6B X:00 Y:00 P:27 SP:FB CYC: 23
C94F  69 7F     ADC                             A:7F X:00 Y:00 P:25 SP:FB CYC: 29
C951  10 0B     BPL                             A:FF X:00 Y:00 P:E4 SP:FB CYC: 35
C953  B0 09     BCS                             A:FF X:00 Y:00 P:E4 SP:FB CYC: 41
C955  C9 FF     CMP                             A:FF X:00 Y:00 P:E4 SP:FB CYC: 47
C957  D0 05     BNE                             A:FF X:00 Y:00 P:67 SP:FB CYC: 53
C959  50 03     BVC                             A:FF X:00 Y:00 P:67 SP:FB CYC: 59
C95B  4C 62 C9  JMP                             A:FF X:00 Y:00 P:67 SP:FB CYC: 65
C962  EA        NOP                             A:FF X:00 Y:00 P:67 SP:FB CYC: 74
C963  18        CLC                             A:FF X:00 Y:00 P:67 SP:FB CYC: 80
C964  24 01     BIT                             A:FF X:00 Y:00 P:66 SP:FB CYC: 86
C966  A9 7F     LDA                             A:FF X:00 Y:00 P:E4 SP:FB CYC: 95
C968  69 80     ADC                             A:7F X:00 Y:00 P:64 SP:FB CYC:101
C96A  10 0B     BPL                             A:FF X:00 Y:00 P:A4 SP:FB CYC:107
C96C  B0 09     BCS                             A:FF X:00 Y:00 P:A4 SP:FB CYC:113
C96E  C9 FF     CMP                             A:FF X:00 Y:00 P:A4 SP:FB CYC:119
C970  D0 05     BNE                             A:FF X:00 Y:00 P:27 SP:FB CYC:125
C972  70 03     BVS                             A:FF X:00 Y:00 P:27 SP:FB CYC:131
C974  4C 7B C9  JMP                             A:FF X:00 Y:00 P:27 SP:FB CYC:137
C97B  EA        NOP                             A:FF X:00 Y:00 P:27 SP:FB CYC:146
C97C  38        SEC                             A:FF X:00 Y:00 P:27 SP:FB CYC:152
C97D  B8        CLV                             A:FF X:00 Y:00 P:27 SP:FB CYC:158
C97E  A9 7F     LDA                             A:FF X:00 Y:00 P:27 SP:FB CYC:164
C980  69 80     ADC                             A:7F X:00 Y:00 P:25 SP:FB CYC:170
C982  D0 09     BNE                             A:00 X:00 Y:00 P:27 SP:FB CYC:176
C984  30 07     BMI                             A:00 X:00 Y:00 P:27 SP:FB CYC:182
C986  70 05     BVS                             A:00 X:00 Y:00 P:27 SP:FB CYC:188
C988  90 03     BCC                             A:00 X:00 Y:00 P:27 SP:FB CYC:194
C98A  4C 91 C9  JMP                             A:00 X:00 Y:00 P:27 SP:FB CYC:200
C991  EA        NOP                             A:00 X:00 Y:00 P:27 SP:FB CYC:209
C992  38        SEC                             A:00 X:00 Y:00 P:27 SP:FB CYC:215
C993  B8        CLV                             A:00 X:00 Y:00 P:27 SP:FB CYC:221
C994  A9 9F     LDA                             A:00 X:00 Y:00 P:27 SP:FB CYC:227
C996  F0 09     BEQ                             A:9F X:00 Y:00 P:A5 SP:FB CYC:233
C998  10 07     BPL                             A:9F X:00 Y:00 P:A5 SP:FB CYC:239
C99A  70 05     BVS                             A:9F X:00 Y:00 P:A5 SP:FB CYC:245
C99C  90 03     BCC                             A:9F X:00 Y:00 P:A5 SP:FB CYC:251
C99E  4C A5 C9  JMP                             A:9F X:00 Y:00 P:A5 SP:FB CYC:257
C9A5  EA        NOP                             A:9F X:00 Y:00 P:A5 SP:FB CYC:266
C9A6  18        CLC                             A:9F X:00 Y:00 P:A5 SP:FB CYC:272
C9A7  24 01     BIT                             A:9F X:00 Y:00 P:A4 SP:FB CYC:278
C9A9  A9 00     LDA                             A:9F X:00 Y:00 P:E4 SP:FB CYC:287
C9AB  D0 09     BNE                             A:00 X:00 Y:00 P:66 SP:FB CYC:293
C9AD  30 07     BMI                             A:00 X:00 Y:00 P:66 SP:FB CYC:299
C9AF  50 05     BVC                             A:00 X:00 Y:00 P:66 SP:FB CYC:305
C9B1  B0 03     BCS                             A:00 X:00 Y:00 P:66 SP:FB CYC:311
C9B3  4C BA C9  JMP                             A:00 X:00 Y:00 P:66 SP:FB CYC:317
C9BA  EA        NOP                             A:00 X:00 Y:00 P:66 SP:FB CYC:326
C9BB  24 01     BIT                             A:00 X:00 Y:00 P:66 SP:FB CYC:332
C9BD  A9 40     LDA                             A:00 X:00 Y:00 P:E6 SP:FB CYC:  0
C9BF  C9 40     CMP                             A:40 X:00 Y:00 P:64 SP:FB CYC:  6
C9C1  30 09     BMI                             A:40 X:00 Y:00 P:67 SP:FB CYC: 12
C9C3  90 07     BCC                             A:40 X:00 Y:00 P:67 SP:FB CYC: 18
C9C5  D0 05     BNE                             A:40 X:00 Y:00 P:67 SP:FB CYC: 24
C9C7  50 03     BVC                             A:40 X:00 Y:00 P:67 SP:FB CYC: 30
C9C9  4C D0 C9  JMP                             A:40 X:00 Y:00 P:67 SP:FB CYC: 36
C9D0  EA        NOP                             A:40 X:00 Y:00 P:67 SP:FB CYC: 45
C9D1  B8        CLV                             A:40 X:00 Y:00 P:67 SP:FB CYC: 51
C9D2  C9 3F     CMP                             A:40 X:00 Y:00 P:27 SP:FB CYC: 57
C9D4  F0 09     BEQ                             A:40 X:00 Y:00 P:25 SP:FB CYC: 63
C9D6  30 07     BMI                             A:40 X:00 Y:00 P:25 SP:FB CYC: 69
C9D8  90 05     BCC                             A:40 X:00 Y:00 P:25 SP:FB CYC: 75
C9DA  70 03     BVS                             A:40 X:00 Y:00 P:25 SP:FB CYC: 81
C9DC  4C E3 C9  JMP                             A:40 X:00 Y:00 P:25 SP:FB CYC: 87
C9E3  EA        NOP                             A:40 X:00 Y:00 P:25 SP:FB CYC: 96
C9E4  C9 41     CMP                             A:40 X:00 Y:00 P:25 SP:FB CYC:102
C9E6  F0 07     BEQ                             A:40 X:00 Y:00 P:A4 SP:FB CYC:108
C9E8  10 05     BPL                             A:40 X:00 Y:00 P:A4 SP:FB CYC:114
C9EA  10 03     BPL                             A:40 X:00 Y:00 P:A4 SP:FB CYC:120
C9EC  4C F3 C9  JMP                             A:40 X:00 Y:00 P:A4 SP:FB CYC:126
C9F3  EA        NOP                             A:40 X:00 Y:00 P:A4 SP:FB CYC:135
C9F4  A9 80     LDA                             A:40 X:00 Y:00 P:A4 SP:FB CYC:141
C9F6  C9 00     CMP                             A:80 X:00 Y:00 P:A4 SP:FB CYC:147
C9F8  F0 07     BEQ                             A:80 X:00 Y:00 P:A5 SP:FB CYC:153
C9FA  10 05     BPL                             A:80 X:00 Y:00 P:A5 SP:FB CYC:159
C9FC  90 03     BCC                             A:80 X:00 Y:00 P:A5 SP:FB CYC:165
C9FE  4C 05 CA  JMP                             A:80 X:00 Y:00 P:A5 SP:FB CYC:171
CA05  EA        NOP                             A:80 X:00 Y:00 P:A5 SP:FB CYC:180
CA06  C9 80     CMP                             A:80 X:00 Y:00 P:A5 SP:FB CYC:186
CA08  D0 07     BNE                             A:80 X:00 Y:00 P:27 SP:FB CYC:192
CA0A  30 05     BMI                             A:80 X:00 Y:00 P:27 SP:FB CYC:198
CA0C  90 03     BCC                             A:80 X:00 Y:00 P:27 SP:FB CYC:204
CA0E  4C 15 CA  JMP                             A:80 X:00 Y:00 P:27 SP:FB CYC:210
CA15  EA        NOP                             A:80 X:00 Y:00 P:27 SP:FB CYC:219
CA16  C9 81     CMP                             A:80 X:00 Y:00 P:27 SP:FB CYC:225
CA18  B0 07     BCS                             A:80 X:00 Y:00 P:A4 SP:FB CYC:231
CA1A  F0 05     BEQ                             A:80 X:00 Y:00 P:A4 SP:FB CYC:237
CA1C  10 03     BPL                             A:80 X:00 Y:00 P:A4 SP:FB CYC:243
CA1E  4C 25 CA  JMP                             A:80 X:00 Y:00 P:A4 SP:FB CYC:249
CA25  EA        NOP                             A:80 X:00 Y:00 P:A4 SP:FB CYC:258
CA26  C9 7F     CMP                             A:80 X:00 Y:00 P:A4 SP:FB CYC:264
CA28  90 07     BCC                             A:80 X:00 Y:00 P:25 SP:FB CYC:270
CA2A  F0 05     BEQ                             A:80 X:00 Y:00 P:25 SP:FB CYC:276
CA2C  30 03     BMI                             A:80 X:00 Y:00 P:25 SP:FB CYC:282
CA2E  4C 35 CA  JMP                             A:80 X:00 Y:00 P:25 SP:FB CYC:288
CA35  EA        NOP                             A:80 X:00 Y:00 P:25 SP:FB CYC:297
CA36  24 01     BIT                             A:80 X:00 Y:00 P:25 SP:FB CYC:303
CA38  A0 40     LDY                             A:80 X:00 Y:00 P:E5 SP:FB CYC:312
CA3A  C0 40     CPY                             A:80 X:00 Y:40 P:65 SP:FB CYC:318
CA3C  D0 09     BNE                             A:80 X:00 Y:40 P:67 SP:FB CYC:324
CA3E  30 07     BMI                             A:80 X:00 Y:40 P:67 SP:FB CYC:330
CA40  90 05     BCC                             A:80 X:00 Y:40 P:67 SP:FB CYC:336
CA42  50 03     BVC                             A:80 X:00 Y:40 P:67 SP:FB CYC:  1
CA44  4C 4B CA  JMP                             A:80 X:00 Y:40 P:67 SP:FB CYC:  7
CA4B  EA        NOP                             A:80 X:00 Y:40 P:67 SP:FB CYC: 16
CA4C  B8        CLV                             A:80 X:00 Y:40 P:67 SP:FB CYC: 22
CA4D  C0 3F     CPY                             A:80 X:00 Y:40 P:27 SP:FB CYC: 28
CA4F  F0 09     BEQ                             A:80 X:00 Y:40 P:25 SP:FB CYC: 34
CA51  30 07     BMI                             A:80 X:00 Y:40 P:25 SP:FB CYC: 40
CA53  90 05     BCC                             A:80 X:00 Y:40 P:25 SP:FB CYC: 46
CA55  70 03     BVS                             A:80 X:00 Y:40 P:25 SP:FB CYC: 52
CA57  4C 5E CA  JMP                             A:80 X:00 Y:40 P:25 SP:FB CYC: 58
CA5E  EA        NOP                             A:80 X:00 Y:40 P:25 SP:FB CYC: 67
CA5F  C0 41     CPY                             A:80 X:00 Y:40 P:25 SP:FB CYC: 73
CA61  F0 07     BEQ                             A:80 X:00 Y:40 P:A4 SP:FB CYC: 79
CA63  10 05     BPL                             A:80 X:00 Y:40 P:A4 SP:FB CYC: 85
CA65  10 03     BPL                             A:80 X:00 Y:40 P:A4 SP:FB CYC: 91
CA67  4C 6E CA  JMP                             A:80 X:00 Y:40 P:A4 SP:FB CYC: 97
CA6E  EA        NOP                             A:80 X:00 Y:40 P:A4 SP:FB CYC:106
CA6F  A0 80     LDY                             A:80 X:00 Y:40 P:A4 SP:FB CYC:112
CA71  C0 00     CPY                             A:80 X:00 Y:80 P:A4 SP:FB CYC:118
CA73  F0 07     BEQ                             A:80 X:00 Y:80 P:A5 SP:FB CYC:124
CA75  10 05     BPL                             A:80 X:00 Y:80 P:A5 SP:FB CYC:130
CA77  90 03     BCC                             A:80 X:00 Y:80 P:A5 SP:FB CYC:136
CA79  4C 80 CA  JMP                             A:80 X:00 Y:80 P:A5 SP:FB CYC:142
CA80  EA        NOP                             A:80 X:00 Y:80 P:A5 SP:FB CYC:151
CA81  C0 80     CPY                             A:80 X:00 Y:80 P:A5 SP:FB CYC:157
CA83  D0 07     BNE                             A:80 X:00 Y:80 P:27 SP:FB CYC:163
CA85  30 05     BMI                             A:80 X:00 Y:80 P:27 SP:FB CYC:169
CA87  90 03     BCC                             A:80 X:00 Y:80 P:27 SP:FB CYC:175
CA89  4C 90 CA  JMP                             A:80 X:00 Y:80 P:27 SP:FB CYC:181
CA90  EA        NOP                             A:80 X:00 Y:80 P:27 SP:FB CYC:190
CA91  C0 81     CPY                             A:80 X:00 Y:80 P:27 SP:FB CYC:196
CA93  B0 07     BCS                             A:80 X:00 Y:80 P:A4 SP:FB CYC:202
CA95  F0 05     BEQ                             A:80 X:00 Y:80 P:A4 SP:FB CYC:208
CA97  10 03     BPL                             A:80 X:00 Y:80 P:A4 SP:FB CYC:214
CA99  4C A0 CA  JMP                             A:80 X:00 Y:80 P:A4 SP:FB CYC:220
CAA0  EA        NOP                             A:80 X:00 Y:80 P:A4 SP:FB CYC:229
CAA1  C0 7F     CPY                             A:80 X:00 Y:80 P:A4 SP:FB CYC:235
CAA3  90 07     BCC                             A:80 X:00 Y:80 P:25 SP:FB CYC:241
CAA5  F0 05     BEQ                             A:80 X:00 Y:80 P:25 SP:FB CYC:247
CAA7  30 03     BMI                             A:80 X:00 Y:80 P:25 SP:FB CYC:253
CAA9  4C B0 CA  JMP                             A:80 X:00 Y:80 P:25 SP:FB CYC:259
CAB0  EA        NOP                             A:80 X:00 Y:80 P:25 SP:FB CYC:268
CAB1  24 01     BIT                             A:80 X:00 Y:80 P:25 SP:FB CYC:274
CAB3  A2 40     LDX                             A:80 X:00 Y:80 P:E5 SP:FB CYC:283
CAB5  E0 40     CPX                             A:80 X:40 Y:80 P:65 SP:FB CYC:289
CAB7  D0 09     BNE                             A:80 X:40 Y:80 P:67 SP:FB CYC:295
CAB9  30 07     BMI                             A:80 X:40 Y:80 P:67 SP:FB CYC:301
CABB  90 05     BCC                             A:80 X:40 Y:80 P:67 SP:FB CYC:307
CABD  50 03     BVC                             A:80 X:40 Y:80 P:67 SP:FB CYC:313
CABF  4C C6 CA  JMP                             A:80 X:40 Y:80 P:67 SP:FB CYC:319
CAC6  EA        NOP                             A:80 X:40 Y:80 P:67 SP:FB CYC:328
CAC7  B8        CLV                             A:80 X:40 Y:80 P:67 SP:FB CYC:334
CAC8  E0 3F     CPX                             A:80 X:40 Y:80 P:27 SP:FB CYC:340
CACA  F0 09     BEQ                             A:80 X:40 Y:80 P:25 SP:FB CYC:  5
CACC  30 07     BMI                             A:80 X:40 Y:80 P:25 SP:FB CYC: 11
CACE  90 05     BCC                             A:80 X:40 Y:80 P:25 SP:FB CYC: 17
CAD0  70 03     BVS                             A:80 X:40 Y:80 P:25 SP:FB CYC: 23
CAD2  4C D9 CA  JMP                             A:80 X:40 Y:80 P:25 SP:FB CYC: 29
CAD9  EA        NOP                             A:80 X:40 Y:80 P:25 SP:FB CYC: 38
CADA  E0 41     CPX                             A:80 X:40 Y:80 P:25 SP:FB CYC: 44
CADC  F0 07     BEQ                             A:80 X:40 Y:80 P:A4 SP:FB CYC: 50
CADE  10 05     BPL                             A:80 X:40 Y:80 P:A4 SP:FB CYC: 56
CAE0  10 03     BPL                             A:80 X:40 Y:80 P:A4 SP:FB CYC: 62
CAE2  4C E9 CA  JMP                             A:80 X:40 Y:80 P:A4 SP:FB CYC: 68
CAE9  EA        NOP                             A:80 X:40 Y:80 P:A4 SP:FB CYC: 77
CAEA  A2 80     LDX                             A:80 X:40 Y:80 P:A4 SP:FB CYC: 83
CAEC  E0 00     CPX                             A:80 X:80 Y:80 P:A4 SP:FB CYC: 89
CAEE  F0 07     BEQ                             A:80 X:80 Y:80 P:A5 SP:FB CYC: 95
CAF0  10 05     BPL                             A:80 X:80 Y:80 P:A5 SP:FB CYC:101
CAF2  90 03     BCC                             A:80 X:80 Y:80 P:A5 SP:FB CYC:107
CAF4  4C FB CA  JMP                             A:80 X:80 Y:80 P:A5 SP:FB CYC:113
CAFB  EA        NOP                             A:80 X:80 Y:80 P:A5 SP:FB CYC:122
CAFC  E0 80     CPX                             A:80 X:80 Y:80 P:A5 SP:FB CYC:128
CAFE  D0 07     BNE                             A:80 X:80 Y:80 P:27 SP:FB CYC:134
CB00  30 05     BMI                             A:80 X:80 Y:80 P:27 SP:FB CYC:140
CB02  90 03     BCC                             A:80 X:80 Y:80 P:27 SP:FB CYC:146
CB04  4C 0B CB  JMP                             A:80 X:80 Y:80 P:27 SP:FB CYC:152
CB0B  EA        NOP                             A:80 X:80 Y:80 P:27 SP:FB CYC:161
CB0C  E0 81     CPX                             A:80 X:80 Y:80 P:27 SP:FB CYC:167
CB0E  B0 07     BCS                             A:80 X:80 Y:80 P:A4 SP:FB CYC:173
CB10  F0 05     BEQ                             A:80 X:80 Y:80 P:A4 SP:FB CYC:179
CB12  10 03     BPL                             A:80 X:80 Y:80 P:A4 SP:FB CYC:185
CB14  4C 1B CB  JMP                             A:80 X:80 Y:80 P:A4 SP:FB CYC:191
CB1B  EA        NOP                             A:80 X:80 Y:80 P:A4 SP:FB CYC:200
CB1C  E0 7F     CPX                             A:80 X:80 Y:80 P:A4 SP:FB CYC:206
CB1E  90 07     BCC                             A:80 X:80 Y:80 P:25 SP:FB CYC:212
CB20  F0 05     BEQ                             A:80 X:80 Y:80 P:25 SP:FB CYC:218
CB22  30 03     BMI                             A:80 X:80 Y:80 P:25 SP:FB CYC:224
CB24  4C 2B CB  JMP                             A:80 X:80 Y:80 P:25 SP:FB CYC:230
CB2B  EA        NOP                             A:80 X:80 Y:80 P:25 SP:FB CYC:239
CB2C  38        SEC                             A:80 X:80 Y:80 P:25 SP:FB CYC:245
CB2D  B8        CLV                             A:80 X:80 Y:80 P:25 SP:FB CYC:251
CB2E  A2 9F     LDX                             A:80 X:80 Y:80 P:25 SP:FB CYC:257
CB30  F0 09     BEQ                             A:80 X:9F Y:80 P:A5 SP:FB CYC:263
CB32  10 07     BPL                             A:80 X:9F Y:80 P:A5 SP:FB CYC:269
CB34  70 05     BVS                             A:80 X:9F Y:80 P:A5 SP:FB CYC:275
CB36  90 03     BCC                             A:80 X:9F Y:80 P:A5 SP:FB CYC:281
CB38  4C 3F CB  JMP                             A:80 X:9F Y:80 P:A5 SP:FB CYC:287
CB3F  EA        NOP                             A:80 X:9F Y:80 P:A5 SP:FB CYC:296
CB40  18        CLC                             A:80 X:9F Y:80 P:A5 SP:FB CYC:302
CB41  24 01     BIT                             A:80 X:9F Y:80 P:A4 SP:FB CYC:308
CB43  A2 00     LDX                             A:80 X:9F Y:80 P:E4 SP:FB CYC:317
CB45  D0 09     BNE                             A:80 X:00 Y:80 P:66 SP:FB CYC:323
CB47  30 07     BMI                             A:80 X:00 Y:80 P:66 SP:FB CYC:329
CB49  50 05     BVC                             A:80 X:00 Y:80 P:66 SP:FB CYC:335
CB4B  B0 03     BCS                             A:80 X:00 Y:80 P:66 SP:FB CYC:  0
CB4D  4C 54 CB  JMP                             A:80 X:00 Y:80 P:66 SP:FB CYC:  6
CB54  EA        NOP                             A:80 X:00 Y:80 P:66 SP:FB CYC: 15
CB55  38        SEC                             A:80 X:00 Y:80 P:66 SP:FB CYC: 21
CB56  B8        CLV                             A:80 X:00 Y:80 P:67 SP:FB CYC: 27
CB57  A0 9F     LDY                             A:80 X:00 Y:80 P:27 SP:FB CYC: 33
CB59  F0 09     BEQ                             A:80 X:00 Y:9F P:A5 SP:FB CYC: 39
CB5B  10 07     BPL                             A:80 X:00 Y:9F P:A5 SP:FB CYC: 45
CB5D  70 05     BVS                             A:80 X:00 Y:9F P:A5 SP:FB CYC: 51
CB5F  90 03     BCC                             A:80 X:00 Y:9F P:A5 SP:FB CYC: 57
CB61  4C 68 CB  JMP                             A:80 X:00 Y:9F P:A5 SP:FB CYC: 63
CB68  EA        NOP                             A:80 X:00 Y:9F P:A5 SP:FB CYC: 72
CB69  18        CLC                             A:80 X:00 Y:9F P:A5 SP:FB CYC: 78
CB6A  24 01     BIT                             A:80 X:00 Y:9F P:A4 SP:FB CYC: 84
CB6C  A0 00     LDY                             A:80 X:00 Y:9F P:E4 SP:FB CYC: 93
CB6E  D0 09     BNE                             A:80 X:00 Y:00 P:66 SP:FB CYC: 99
CB70  30 07     BMI                             A:80 X:00 Y:00 P:66 SP:FB CYC:105
CB72  50 05     BVC                             A:80 X:00 Y:00 P:66 SP:FB CYC:111
CB74  B0 03     BCS                             A:80 X:00 Y:00 P:66 SP:FB CYC:117
CB76  4C 7D CB  JMP                             A:80 X:00 Y:00 P:66 SP:FB CYC:123
CB7D  EA        NOP                             A:80 X:00 Y:00 P:66 SP:FB CYC:132
CB7E  A9 55     LDA                             A:80 X:00 Y:00 P:66 SP:FB CYC:138
CB80  A2 AA     LDX                             A:55 X:00 Y:00 P:64 SP:FB CYC:144
CB82  A0 33     LDY                             A:55 X:AA Y:00 P:E4 SP:FB CYC:150
CB84  C9 55     CMP                             A:55 X:AA Y:33 P:64 SP:FB CYC:156
CB86  D0 23     BNE                             A:55 X:AA Y:33 P:67 SP:FB CYC:162
CB88  E0 AA     CPX                             A:55 X:AA Y:33 P:67 SP:FB CYC:168
CB8A  D0 1F     BNE                             A:55 X:AA Y:33 P:67 SP:FB CYC:174
CB8C  C0 33     CPY                             A:55 X:AA Y:33 P:67 SP:FB CYC:180
CB8E  D0 1B     BNE                             A:55 X:AA Y:33 P:67 SP:FB CYC:186
CB90  C9 55     CMP                             A:55 X:AA Y:33 P:67 SP:FB CYC:192
CB92  D0 17     BNE                             A:55 X:AA Y:33 P:67 SP:FB CYC:198
CB94  E0 AA     CPX                             A:55 X:AA Y:33 P:67 SP:FB CYC:204
CB96  D0 13     BNE                             A:55 X:AA Y:33 P:67 SP:FB CYC:210
CB98  C0 33     CPY                             A:55 X:AA Y:33 P:67 SP:FB CYC:216
CB9A  D0 0F     BNE                             A:55 X:AA Y:33 P:67 SP:FB CYC:222
CB9C  C9 56     CMP                             A:55 X:AA Y:33 P:67 SP:FB CYC:228
CB9E  F0 0B     BEQ                             A:55 X:AA Y:33 P:E4 SP:FB CYC:234
CBA0  E0 AB     CPX                             A:55 X:AA Y:33 P:E4 SP:FB CYC:240
CBA2  F0 07     BEQ                             A:55 X:AA Y:33 P:E4 SP:FB CYC:246
CBA4  C0 34     CPY                             A:55 X:AA Y:33 P:E4 SP:FB CYC:252
CBA6  F0 03     BEQ                             A:55 X:AA Y:33 P:E4 SP:FB CYC:258
CBA8  4C AF CB  JMP                             A:55 X:AA Y:33 P:E4 SP:FB CYC:264
CBAF  A0 71     LDY                             A:55 X:AA Y:33 P:E4 SP:FB CYC:273
CBB1  20 31 F9  JSR                             A:55 X:AA Y:71 P:64 SP:FB CYC:279
F931  24 01     BIT                             A:55 X:AA Y:71 P:64 SP:F9 CYC:297
F933  A9 40     LDA                             A:55 X:AA Y:71 P:E4 SP:F9 CYC:306
F935  38        SEC                             A:40 X:AA Y:71 P:64 SP:F9 CYC:312
F936  60        RTS                             A:40 X:AA Y:71 P:65 SP:F9 CYC:318
CBB4  E9 40     SBC                             A:40 X:AA Y:71 P:65 SP:FB CYC:336
CBB6  20 37 F9  JSR                             A:00 X:AA Y:71 P:27 SP:FB CYC:  1
F937  30 0B     BMI                             A:00 X:AA Y:71 P:27 SP:F9 CYC: 19
F939  90 09     BCC                             A:00 X:AA Y:71 P:27 SP:F9 CYC: 25
F93B  D0 07     BNE                             A:00 X:AA Y:71 P:27 SP:F9 CYC: 31
F93D  70 05     BVS                             A:00 X:AA Y:71 P:27 SP:F9 CYC: 37
F93F  C9 00     CMP                             A:00 X:AA Y:71 P:27 SP:F9 CYC: 43
F941  D0 01     BNE                             A:00 X:AA Y:71 P:27 SP:F9 CYC: 49
F943  60        RTS                             A:00 X:AA Y:71 P:27 SP:F9 CYC: 55
CBB9  C8        INY                             A:00 X:AA Y:71 P:27 SP:FB CYC: 73
CBBA  20 47 F9  JSR                             A:00 X:AA Y:72 P:25 SP:FB CYC: 79
F947  B8        CLV                             A:00 X:AA Y:72 P:25 SP:F9 CYC: 97
F948  38        SEC                             A:00 X:AA Y:72 P:25 SP:F9 CYC:103
F949  A9 40     LDA                             A:00 X:AA Y:72 P:25 SP:F9 CYC:109
F94B  60        RTS                             A:40 X:AA Y:72 P:25 SP:F9 CYC:115
CBBD  E9 3F     SBC                             A:40 X:AA Y:72 P:25 SP:FB CYC:133
CBBF  20 4C F9  JSR                             A:01 X:AA Y:72 P:25 SP:FB CYC:139
F94C  F0 0B     BEQ                             A:01 X:AA Y:72 P:25 SP:F9 CYC:157
F94E  30 09     BMI                             A:01 X:AA Y:72 P:25 SP:F9 CYC:163
F950  90 07     BCC                             A:01 X:AA Y:72 P:25 SP:F9 CYC:169
F952  70 05     BVS                             A:01 X:AA Y:72 P:25 SP:F9 CYC:175
F954  C9 01     CMP                             A:01 X:AA Y:72 P:25 SP:F9 CYC:181
F956  D0 01     BNE                             A:01 X:AA Y:72 P:27 SP:F9 CYC:187
F958  60        RTS                             A:01 X:AA Y:72 P:27 SP:F9 CYC:193
CBC2  C8        INY                             A:01 X:AA Y:72 P:27 SP:FB CYC:211
CBC3  20 5C F9  JSR                             A:01 X:AA Y:73 P:25 SP:FB CYC:217
F95C  A9 40     LDA                             A:01 X:AA Y:73 P:25 SP:F9 CYC:235
F95E  38        SEC                             A:40 X:AA Y:73 P:25 SP:F9 CYC:241
F95F  24 01     BIT                             A:40 X:AA Y:73 P:25 SP:F9 CYC:247
F961  60        RTS                             A:40 X:AA Y:73 P:E5 SP:F9 CYC:256
CBC6  E9 41     SBC                             A:40 X:AA Y:73 P:E5 SP:FB CYC:274
CBC8  20 62 F9  JSR                             A:FF X:AA Y:73 P:A4 SP:FB CYC:280
F962  B0 0B     BCS                             A:FF X:AA Y:73 P:A4 SP:F9 CYC:298
F964  F0 09     BEQ                             A:FF X:AA Y:73 P:A4 SP:F9 CYC:304
F966  10 07     BPL                             A:FF X:AA Y:73 P:A4 SP:F9 CYC:310
F968  70 05     BVS                             A:FF X:AA Y:73 P:A4 SP:F9 CYC:316
F96A  C9 FF     CMP                             A:FF X:AA Y:73 P:A4 SP:F9 CYC:322
F96C  D0 01     BNE                             A:FF X:AA Y:73 P:27 SP:F9 CYC:328
F96E  60        RTS                             A:FF X:AA Y:73 P:27 SP:F9 CYC:334
CBCB  C8        INY                             A:FF X:AA Y:73 P:27 SP:FB CYC: 11
CBCC  20 72 F9  JSR                             A:FF X:AA Y:74 P:25 SP:FB CYC: 17
F972  18        CLC                             A:FF X:AA Y:74 P:25 SP:F9 CYC: 35
F973  A9 80     LDA                             A:FF X:AA Y:74 P:24 SP:F9 CYC: 41
F975  60        RTS                             A:80 X:AA Y:74 P:A4 SP:F9 CYC: 47
CBCF  E9 00     SBC                             A:80 X:AA Y:74 P:A4 SP:FB CYC: 65
CBD1  20 76 F9  JSR                             A:7F X:AA Y:74 P:65 SP:FB CYC: 71
F976  90 05     BCC                             A:7F X:AA Y:74 P:65 SP:F9 CYC: 89
F978  C9 7F     CMP                             A:7F X:AA Y:74 P:65 SP:F9 CYC: 95
F97A  D0 01     BNE                             A:7F X:AA Y:74 P:67 SP:F9 CYC:101
F97C  60        RTS                             A:7F X:AA Y:74 P:67 SP:F9 CYC:107
CBD4  C8        INY                             A:7F X:AA Y:74 P:67 SP:FB CYC:125
CBD5  20 80 F9  JSR                             A:7F X:AA Y:75 P:65 SP:FB CYC:131
F980  38        SEC                             A:7F X:AA Y:75 P:65 SP:F9 CYC:149
F981  A9 81     LDA                             A:7F X:AA Y:75 P:65 SP:F9 CYC:155
F983  60        RTS                             A:81 X:AA Y:75 P:E5 SP:F9 CYC:161
CBD8  E9 7F     SBC                             A:81 X:AA Y:75 P:E5 SP:FB CYC:179
CBDA  20 84 F9  JSR                             A:02 X:AA Y:75 P:65 SP:FB CYC:185
F984  50 07     BVC                             A:02 X:AA Y:75 P:65 SP:F9 CYC:203
F986  90 05     BCC                             A:02 X:AA Y:75 P:65 SP:F9 CYC:209
F988  C9 02     CMP                             A:02 X:AA Y:75 P:65 SP:F9 CYC:215
F98A  D0 01     BNE                             A:02 X:AA Y:75 P:67 SP:F9 CYC:221
F98C  60        RTS                             A:02 X:AA Y:75 P:67 SP:F9 CYC:227
CBDD  60        RTS                             A:02 X:AA Y:75 P:67 SP:FB CYC:245
C606  20 DE CB  JSR                             A:02 X:AA Y:75 P:67 SP:FD CYC:263
CBDE  EA        NOP                             A:02 X:AA Y:75 P:67 SP:FB CYC:281
CBDF  A9 FF     LDA                             A:02 X:AA Y:75 P:67 SP:FB CYC:287
CBE1  85 01     STA                             A:FF X:AA Y:75 P:E5 SP:FB CYC:293
CBE3  A9 44     LDA                             A:FF X:AA Y:75 P:E5 SP:FB CYC:302
CBE5  A2 55     LDX                             A:44 X:AA Y:75 P:65 SP:FB CYC:308
CBE7  A0 66     LDY                             A:44 X:55 Y:75 P:65 SP:FB CYC:314
CBE9  E8        INX                             A:44 X:55 Y:66 P:65 SP:FB CYC:320
CBEA  88        DEY                             A:44 X:56 Y:66 P:65 SP:FB CYC:326
CBEB  E0 56     CPX                             A:44 X:56 Y:65 P:65 SP:FB CYC:332
CBED  D0 21     BNE                             A:44 X:56 Y:65 P:67 SP:FB CYC:338
CBEF  C0 65     CPY                             A:44 X:56 Y:65 P:67 SP:FB CYC:  3
CBF1  D0 1D     BNE                             A:44 X:56 Y:65 P:67 SP:FB CYC:  9
CBF3  E8        INX                             A:44 X:56 Y:65 P:67 SP:FB CYC: 15
CBF4  E8        INX                             A:44 X:57 Y:65 P:65 SP:FB CYC: 21
CBF5  88        DEY                             A:44 X:58 Y:65 P:65 SP:FB CYC: 27
CBF6  88        DEY                             A:44 X:58 Y:64 P:65 SP:FB CYC: 33
CBF7  E0 58     CPX                             A:44 X:58 Y:63 P:65 SP:FB CYC: 39
CBF9  D0 15     BNE                             A:44 X:58 Y:63 P:67 SP:FB CYC: 45
CBFB  C0 63     CPY                             A:44 X:58 Y:63 P:67 SP:FB CYC: 51
CBFD  D0 11     BNE                             A:44 X:58 Y:63 P:67 SP:FB CYC: 57
CBFF  CA        DEX                             A:44 X:58 Y:63 P:67 SP:FB CYC: 63
CC00  C8        INY                             A:44 X:57 Y:63 P:65 SP:FB CYC: 69
CC01  E0 57     CPX                             A:44 X:57 Y:64 P:65 SP:FB CYC: 75
CC03  D0 0B     BNE                             A:44 X:57 Y:64 P:67 SP:FB CYC: 81
CC05  C0 64     CPY                             A:44 X:57 Y:64 P:67 SP:FB CYC: 87
CC07  D0 07     BNE                             A:44 X:57 Y:64 P:67 SP:FB CYC: 93
CC09  C9 44     CMP                             A:44 X:57 Y:64 P:67 SP:FB CYC: 99
CC0B  D0 03     BNE                             A:44 X:57 Y:64 P:67 SP:FB CYC:105
CC0D  4C 14 CC  JMP                             A:44 X:57 Y:64 P:67 SP:FB CYC:111
CC14  EA        NOP                             A:44 X:57 Y:64 P:67 SP:FB CYC:120
CC15  38        SEC                             A:44 X:57 Y:64 P:67 SP:FB CYC:126
CC16  A2 69     LDX                             A:44 X:57 Y:64 P:67 SP:FB CYC:132
CC18  A9 96     LDA                             A:44 X:69 Y:64 P:65 SP:FB CYC:138
CC1A  24 01     BIT                             A:96 X:69 Y:64 P:E5 SP:FB CYC:144
CC1C  A0 FF     LDY                             A:96 X:69 Y:64 P:E5 SP:FB CYC:153
CC1E  C8        INY                             A:96 X:69 Y:FF P:E5 SP:FB CYC:159
CC1F  D0 3D     BNE                             A:96 X:69 Y:00 P:67 SP:FB CYC:165
CC21  30 3B     BMI                             A:96 X:69 Y:00 P:67 SP:FB CYC:171
CC23  90 39     BCC                             A:96 X:69 Y:00 P:67 SP:FB CYC:177
CC25  50 37     BVC                             A:96 X:69 Y:00 P:67 SP:FB CYC:183
CC27  C0 00     CPY                             A:96 X:69 Y:00 P:67 SP:FB CYC:189
CC29  D0 33     BNE                             A:96 X:69 Y:00 P:67 SP:FB CYC:195
CC2B  C8        INY                             A:96 X:69 Y:00 P:67 SP:FB CYC:201
CC2C  F0 30     BEQ                             A:96 X:69 Y:01 P:65 SP:FB CYC:207
CC2E  30 2E     BMI                             A:96 X:69 Y:01 P:65 SP:FB CYC:213
CC30  90 2C     BCC                             A:96 X:69 Y:01 P:65 SP:FB CYC:219
CC32  50 2A     BVC                             A:96 X:69 Y:01 P:65 SP:FB CYC:225
CC34  18        CLC                             A:96 X:69 Y:01 P:65 SP:FB CYC:231
CC35  B8        CLV                             A:96 X:69 Y:01 P:64 SP:FB CYC:237
CC36  A0 00     LDY                             A:96 X:69 Y:01 P:24 SP:FB CYC:243
CC38  88        DEY                             A:96 X:69 Y:00 P:26 SP:FB CYC:249
CC39  F0 23     BEQ                             A:96 X:69 Y:FF P:A4 SP:FB CYC:255
CC3B  10 21     BPL                             A:96 X:69 Y:FF P:A4 SP:FB CYC:261
CC3D  B0 1F     BCS                             A:96 X:69 Y:FF P:A4 SP:FB CYC:267
CC3F  70 1D     BVS                             A:96 X:69 Y:FF P:A4 SP:FB CYC:273
CC41  C0 FF     CPY                             A:96 X:69 Y:FF P:A4 SP:FB CYC:279
CC43  D0 19     BNE                             A:96 X:69 Y:FF P:27 SP:FB CYC:285
CC45  18        CLC                             A:96 X:69 Y:FF P:27 SP:FB CYC:291
CC46  88        DEY                             A:96 X:69 Y:FF P:26 SP:FB CYC:297
CC47  F0 15     BEQ                             A:96 X:69 Y:FE P:A4 SP:FB CYC:303
CC49  10 13     BPL                             A:96 X:69 Y:FE P:A4 SP:FB CYC:309
CC4B  B0 11     BCS                             A:96 X:69 Y:FE P:A4 SP:FB CYC:315
CC4D  70 0F     BVS                             A:96 X:69 Y:FE P:A4 SP:FB CYC:321
CC4F  C0 FE     CPY                             A:96 X:69 Y:FE P:A4 SP:FB CYC:327
CC51  D0 0B     BNE                             A:96 X:69 Y:FE P:27 SP:FB CYC:333
CC53  C9 96     CMP                             A:96 X:69 Y:FE P:27 SP:FB CYC:339
CC55  D0 07     BNE                             A:96 X:69 Y:FE P:27 SP:FB CYC:  4
CC57  E0 69     CPX                             A:96 X:69 Y:FE P:27 SP:FB CYC: 10
CC59  D0 03     BNE                             A:96 X:69 Y:FE P:27 SP:FB CYC: 16
CC5B  4C 62 CC  JMP                             A:96 X:69 Y:FE P:27 SP:FB CYC: 22
CC62  EA        NOP                             A:96 X:69 Y:FE P:27 SP:FB CYC: 31
CC63  38        SEC                             A:96 X:69 Y:FE P:27 SP:FB CYC: 37
CC64  A0 69     LDY                             A:96 X:69 Y:FE P:27 SP:FB CYC: 43
CC66  A9 96     LDA                             A:96 X:69 Y:69 P:25 SP:FB CYC: 49
CC68  24 01     BIT                             A:96 X:69 Y:69 P:A5 SP:FB CYC: 55
CC6A  A2 FF     LDX                             A:96 X:69 Y:69 P:E5 SP:FB CYC: 64
CC6C  E8        INX                             A:96 X:FF Y:69 P:E5 SP:FB CYC: 70
CC6D  D0 3D     BNE                             A:96 X:00 Y:69 P:67 SP:FB CYC: 76
CC6F  30 3B     BMI                             A:96 X:00 Y:69 P:67 SP:FB CYC: 82
CC71  90 39     BCC                             A:96 X:00 Y:69 P:67 SP:FB CYC: 88
CC73  50 37     BVC                             A:96 X:00 Y:69 P:67 SP:FB CYC: 94
CC75  E0 00     CPX                             A:96 X:00 Y:69 P:67 SP:FB CYC:100
CC77  D0 33     BNE                             A:96 X:00 Y:69 P:67 SP:FB CYC:106
CC79  E8        INX                             A:96 X:00 Y:69 P:67 SP:FB CYC:112
CC7A  F0 30     BEQ                             A:96 X:01 Y:69 P:65 SP:FB CYC:118
CC7C  30 2E     BMI                             A:96 X:01 Y:69 P:65 SP:FB CYC:124
CC7E  90 2C     BCC                             A:96 X:01 Y:69 P:65 SP:FB CYC:130
CC80  50 2A     BVC                             A:96 X:01 Y:69 P:65 SP:FB CYC:136
CC82  18        CLC                             A:96 X:01 Y:69 P:65 SP:FB CYC:142
CC83  B8        CLV                             A:96 X:01 Y:69 P:64 SP:FB CYC:148
CC84  A2 00     LDX                             A:96 X:01 Y:69 P:24 SP:FB CYC:154
CC86  CA        DEX                             A:96 X:00 Y:69 P:26 SP:FB CYC:160
CC87  F0 23     BEQ                             A:96 X:FF Y:69 P:A4 SP:FB CYC:166
CC89  10 21     BPL                             A:96 X:FF Y:69 P:A4 SP:FB CYC:172
CC8B  B0 1F     BCS                             A:96 X:FF Y:69 P:A4 SP:FB CYC:178
CC8D  70 1D     BVS                             A:96 X:FF Y:69 P:A4 SP:FB CYC:184
CC8F  E0 FF     CPX                             A:96 X:FF Y:69 P:A4 SP:FB CYC:190
CC91  D0 19     BNE                             A:96 X:FF Y:69 P:27 SP:FB CYC:196
CC93  18        CLC                             A:96 X:FF Y:69 P:27 SP:FB CYC:202
CC94  CA        DEX                             A:96 X:FF Y:69 P:26 SP:FB CYC:208
CC95  F0 15     BEQ                             A:96 X:FE Y:69 P:A4 SP:FB CYC:214
CC97  10 13     BPL                             A:96 X:FE Y:69 P:A4 SP:FB CYC:220
CC99  B0 11     BCS                             A:96 X:FE Y:69 P:A4 SP:FB CYC:226
CC9B  70 0F     BVS                             A:96 X:FE Y:69 P:A4 SP:FB CYC:232
CC9D  E0 FE     CPX                             A:96 X:FE Y:69 P:A4 SP:FB CYC:238
CC9F  D0 0B     BNE                             A:96 X:FE Y:69 P:27 SP:FB CYC:244
CCA1  C9 96     CMP                             A:96 X:FE Y:69 P:27 SP:FB CYC:250
CCA3  D0 07     BNE                             A:96 X:FE Y:69 P:27 SP:FB CYC:256
CCA5  C0 69     CPY                             A:96 X:FE Y:69 P:27 SP:FB CYC:262
CCA7  D0 03     BNE                             A:96 X:FE Y:69 P:27 SP:FB CYC:268
CCA9  4C B0 CC  JMP                             A:96 X:FE Y:69 P:27 SP:FB CYC:274
CCB0  EA        NOP                             A:96 X:FE Y:69 P:27 SP:FB CYC:283
CCB1  A9 85     LDA                             A:96 X:FE Y:69 P:27 SP:FB CYC:289
CCB3  A2 34     LDX                             A:85 X:FE Y:69 P:A5 SP:FB CYC:295
CCB5  A0 99     LDY                             A:85 X:34 Y:69 P:25 SP:FB CYC:301
CCB7  18        CLC                             A:85 X:34 Y:99 P:A5 SP:FB CYC:307
CCB8  24 01     BIT                             A:85 X:34 Y:99 P:A4 SP:FB CYC:313
CCBA  A8        TAY                             A:85 X:34 Y:99 P:E4 SP:FB CYC:322
CCBB  F0 2E     BEQ                             A:85 X:34 Y:85 P:E4 SP:FB CYC:328
CCBD  B0 2C     BCS                             A:85 X:34 Y:85 P:E4 SP:FB CYC:334
CCBF  50 2A     BVC                             A:85 X:34 Y:85 P:E4 SP:FB CYC:340
CCC1  10 28     BPL                             A:85 X:34 Y:85 P:E4 SP:FB CYC:  5
CCC3  C9 85     CMP                             A:85 X:34 Y:85 P:E4 SP:FB CYC: 11
CCC5  D0 24     BNE                             A:85 X:34 Y:85 P:67 SP:FB CYC: 17
CCC7  E0 34     CPX                             A:85 X:34 Y:85 P:67 SP:FB CYC: 23
CCC9  D0 20     BNE                             A:85 X:34 Y:85 P:67 SP:FB CYC: 29
CCCB  C0 85     CPY                             A:85 X:34 Y:85 P:67 SP:FB CYC: 35
CCCD  D0 1C     BNE                             A:85 X:34 Y:85 P:67 SP:FB CYC: 41
CCCF  A9 00     LDA                             A:85 X:34 Y:85 P:67 SP:FB CYC: 47
CCD1  38        SEC                             A:00 X:34 Y:85 P:67 SP:FB CYC: 53
CCD2  B8        CLV                             A:00 X:34 Y:85 P:67 SP:FB CYC: 59
CCD3  A8        TAY                             A:00 X:34 Y:85 P:27 SP:FB CYC: 65
CCD4  D0 15     BNE                             A:00 X:34 Y:00 P:27 SP:FB CYC: 71
CCD6  90 13     BCC                             A:00 X:34 Y:00 P:27 SP:FB CYC: 77
CCD8  70 11     BVS                             A:00 X:34 Y:00 P:27 SP:FB CYC: 83
CCDA  30 0F     BMI                             A:00 X:34 Y:00 P:27 SP:FB CYC: 89
CCDC  C9 00     CMP                             A:00 X:34 Y:00 P:27 SP:FB CYC: 95
CCDE  D0 0B     BNE                             A:00 X:34 Y:00 P:27 SP:FB CYC:101
CCE0  E0 34     CPX                             A:00 X:34 Y:00 P:27 SP:FB CYC:107
CCE2  D0 07     BNE                             A:00 X:34 Y:00 P:27 SP:FB CYC:113
CCE4  C0 00     CPY                             A:00 X:34 Y:00 P:27 SP:FB CYC:119
CCE6  D0 03     BNE                             A:00 X:34 Y:00 P:27 SP:FB CYC:125
CCE8  4C EF CC  JMP                             A:00 X:34 Y:00 P:27 SP:FB CYC:131
CCEF  EA        NOP                             A:00 X:34 Y:00 P:27 SP:FB CYC:140
CCF0  A9 85     LDA                             A:00 X:34 Y:00 P:27 SP:FB CYC:146
CCF2  A2 34     LDX                             A:85 X:34 Y:00 P:A5 SP:FB CYC:152
CCF4  A0 99     LDY                             A:85 X:34 Y:00 P:25 SP:FB CYC:158
CCF6  18        CLC                             A:85 X:34 Y:99 P:A5 SP:FB CYC:164
CCF7  24 01     BIT                             A:85 X:34 Y:99 P:A4 SP:FB CYC:170
CCF9  AA        TAX                             A:85 X:34 Y:99 P:E4 SP:FB CYC:179
CCFA  F0 2E     BEQ                             A:85 X:85 Y:99 P:E4 SP:FB CYC:185
CCFC  B0 2C     BCS                             A:85 X:85 Y:99 P:E4 SP:FB CYC:191
CCFE  50 2A     BVC                             A:85 X:85 Y:99 P:E4 SP:FB CYC:197
CD00  10 28     BPL                             A:85 X:85 Y:99 P:E4 SP:FB CYC:203
CD02  C9 85     CMP                             A:85 X:85 Y:99 P:E4 SP:FB CYC:209
CD04  D0 24     BNE                             A:85 X:85 Y:99 P:67 SP:FB CYC:215
CD06  E0 85     CPX                             A:85 X:85 Y:99 P:67 SP:FB CYC:221
CD08  D0 20     BNE                             A:85 X:85 Y:99 P:67 SP:FB CYC:227
CD0A  C0 99     CPY                             A:85 X:85 Y:99 P:67 SP:FB CYC:233
CD0C  D0 1C     BNE                             A:85 X:85 Y:99 P:67 SP:FB CYC:239
CD0E  A9 00     LDA                             A:85 X:85 Y:99 P:67 SP:FB CYC:245
CD10  38        SEC                             A:00 X:85 Y:99 P:67 SP:FB CYC:251
CD11  B8        CLV                             A:00 X:85 Y:99 P:67 SP:FB CYC:257
CD12  AA        TAX                             A:00 X:85 Y:99 P:27 SP:FB CYC:263
CD13  D0 15     BNE                             A:00 X:00 Y:99 P:27 SP:FB CYC:269
CD15  90 13     BCC                             A:00 X:00 Y:99 P:27 SP:FB CYC:275
CD17  70 11     BVS                             A:00 X:00 Y:99 P:27 SP:FB CYC:281
CD19  30 0F     BMI                             A:00 X:00 Y:99 P:27 SP:FB CYC:287
CD1B  C9 00     CMP                             A:00 X:00 Y:99 P:27 SP:FB CYC:293
CD1D  D0 0B     BNE                             A:00 X:00 Y:99 P:27 SP:FB CYC:299
CD1F  E0 00     CPX                             A:00 X:00 Y:99 P:27 SP:FB CYC:305
CD21  D0 07     BNE                             A:00 X:00 Y:99 P:27 SP:FB CYC:311
CD23  C0 99     CPY                             A:00 X:00 Y:99 P:27 SP:FB CYC:317
CD25  D0 03     BNE                             A:00 X:00 Y:99 P:27 SP:FB CYC:323
CD27  4C 2E CD  JMP                             A:00 X:00 Y:99 P:27 SP:FB CYC:329
CD2E  EA        NOP                             A:00 X:00 Y:99 P:27 SP:FB CYC:338
CD2F  A9 85     LDA                             A:00 X:00 Y:99 P:27 SP:FB CYC:  3
CD31  A2 34     LDX                             A:85 X:00 Y:99 P:A5 SP:FB CYC:  9
CD33  A0 99     LDY                             A:85 X:34 Y:99 P:25 SP:FB CYC: 15
CD35  18        CLC                             A:85 X:34 Y:99 P:A5 SP:FB CYC: 21
CD36  24 01     BIT                             A:85 X:34 Y:99 P:A4 SP:FB CYC: 27
CD38  98        TYA                             A:85 X:34 Y:99 P:E4 SP:FB CYC: 36
CD39  F0 2E     BEQ                             A:99 X:34 Y:99 P:E4 SP:FB CYC: 42
CD3B  B0 2C     BCS                             A:99 X:34 Y:99 P:E4 SP:FB CYC: 48
CD3D  50 2A     BVC                             A:99 X:34 Y:99 P:E4 SP:FB CYC: 54
CD3F  10 28     BPL                             A:99 X:34 Y:99 P:E4 SP:FB CYC: 60
CD41  C9 99     CMP                             A:99 X:34 Y:99 P:E4 SP:FB CYC: 66
CD43  D0 24     BNE                             A:99 X:34 Y:99 P:67 SP:FB CYC: 72
CD45  E0 34     CPX                             A:99 X:34 Y:99 P:67 SP:FB CYC: 78
CD47  D0 20     BNE                             A:99 X:34 Y:99 P:67 SP:FB CYC: 84
CD49  C0 99     CPY                             A:99 X:34 Y:99 P:67 SP:FB CYC: 90
CD4B  D0 1C     BNE                             A:99 X:34 Y:99 P:67 SP:FB CYC: 96
CD4D  A0 00     LDY                             A:99 X:34 Y:99 P:67 SP:FB CYC:102
CD4F  38        SEC                             A:99 X:34 Y:00 P:67 SP:FB CYC:108
CD50  B8        CLV                             A:99 X:34 Y:00 P:67 SP:FB CYC:114
CD51  98        TYA                             A:99 X:34 Y:00 P:27 SP:FB CYC:120
CD52  D0 15     BNE                             A:00 X:34 Y:00 P:27 SP:FB CYC:126
CD54  90 13     BCC                             A:00 X:34 Y:00 P:27 SP:FB CYC:132
CD56  70 11     BVS                             A:00 X:34 Y:00 P:27 SP:FB CYC:138
CD58  30 0F     BMI                             A:00 X:34 Y:00 P:27 SP:FB CYC:144
CD5A  C9 00     CMP                             A:00 X:34 Y:00 P:27 SP:FB CYC:150
CD5C  D0 0B     BNE                             A:00 X:34 Y:00 P:27 SP:FB CYC:156
CD5E  E0 34     CPX                             A:00 X:34 Y:00 P:27 SP:FB CYC:162
CD60  D0 07     BNE                             A:00 X:34 Y:00 P:27 SP:FB CYC:168
CD62  C0 00     CPY                             A:00 X:34 Y:00 P:27 SP:FB CYC:174
CD64  D0 03     BNE                             A:00 X:34 Y:00 P:27 SP:FB CYC:180
CD66  4C 6D CD  JMP                             A:00 X:34 Y:00 P:27 SP:FB CYC:186
CD6D  EA        NOP                             A:00 X:34 Y:00 P:27 SP:FB CYC:195
CD6E  A9 85     LDA                             A:00 X:34 Y:00 P:27 SP:FB CYC:201
CD70  A2 34     LDX                             A:85 X:34 Y:00 P:A5 SP:FB CYC:207
CD72  A0 99     LDY                             A:85 X:34 Y:00 P:25 SP:FB CYC:213
CD74  18        CLC                             A:85 X:34 Y:99 P:A5 SP:FB CYC:219
CD75  24 01     BIT                             A:85 X:34 Y:99 P:A4 SP:FB CYC:225
CD77  8A        TXA                             A:85 X:34 Y:99 P:E4 SP:FB CYC:234
CD78  F0 2E     BEQ                             A:34 X:34 Y:99 P:64 SP:FB CYC:240
CD7A  B0 2C     BCS                             A:34 X:34 Y:99 P:64 SP:FB CYC:246
CD7C  50 2A     BVC                             A:34 X:34 Y:99 P:64 SP:FB CYC:252
CD7E  30 28     BMI                             A:34 X:34 Y:99 P:64 SP:FB CYC:258
CD80  C9 34     CMP                             A:34 X:34 Y:99 P:64 SP:FB CYC:264
CD82  D0 24     BNE                             A:34 X:34 Y:99 P:67 SP:FB CYC:270
CD84  E0 34     CPX                             A:34 X:34 Y:99 P:67 SP:FB CYC:276
CD86  D0 20     BNE                             A:34 X:34 Y:99 P:67 SP:FB CYC:282
CD88  C0 99     CPY                             A:34 X:34 Y:99 P:67 SP:FB CYC:288
CD8A  D0 1C     BNE                             A:34 X:34 Y:99 P:67 SP:FB CYC:294
CD8C  A2 00     LDX                             A:34 X:34 Y:99 P:67 SP:FB CYC:300
CD8E  38        SEC                             A:34 X:00 Y:99 P:67 SP:FB CYC:306
CD8F  B8        CLV                             A:34 X:00 Y:99 P:67 SP:FB CYC:312
CD90  8A        TXA                             A:34 X:00 Y:99 P:27 SP:FB CYC:318
CD91  D0 15     BNE                             A:00 X:00 Y:99 P:27 SP:FB CYC:324
CD93  90 13     BCC                             A:00 X:00 Y:99 P:27 SP:FB CYC:330
CD95  70 11     BVS                             A:00 X:00 Y:99 P:27 SP:FB CYC:336
CD97  30 0F     BMI                             A:00 X:00 Y:99 P:27 SP:FB CYC:  1
CD99  C9 00     CMP                             A:00 X:00 Y:99 P:27 SP:FB CYC:  7
CD9B  D0 0B     BNE                             A:00 X:00 Y:99 P:27 SP:FB CYC: 13
CD9D  E0 00     CPX                             A:00 X:00 Y:99 P:27 SP:FB CYC: 19
CD9F  D0 07     BNE                             A:00 X:00 Y:99 P:27 SP:FB CYC: 25
CDA1  C0 99     CPY                             A:00 X:00 Y:99 P:27 SP:FB CYC: 31
CDA3  D0 03     BNE                             A:00 X:00 Y:99 P:27 SP:FB CYC: 37
CDA5  4C AC CD  JMP                             A:00 X:00 Y:99 P:27 SP:FB CYC: 43
CDAC  EA        NOP                             A:00 X:00 Y:99 P:27 SP:FB CYC: 52
CDAD  BA        TSX                             A:00 X:00 Y:99 P:27 SP:FB CYC: 58
CDAE  8E FF 07  STX                             A:00 X:FB Y:99 P:A5 SP:FB CYC: 64
CDB1  A0 33     LDY                             A:00 X:FB Y:99 P:A5 SP:FB CYC: 76
CDB3  A2 69     LDX                             A:00 X:FB Y:33 P:25 SP:FB CYC: 82
CDB5  A9 84     LDA                             A:00 X:69 Y:33 P:25 SP:FB CYC: 88
CDB7  18        CLC                             A:84 X:69 Y:33 P:A5 SP:FB CYC: 94
CDB8  24 01     BIT                             A:84 X:69 Y:33 P:A4 SP:FB CYC:100
CDBA  9A        TXS                             A:84 X:69 Y:33 P:E4 SP:FB CYC:109
CDBB  F0 32     BEQ                             A:84 X:69 Y:33 P:E4 SP:69 CYC:115
CDBD  10 30     BPL                             A:84 X:69 Y:33 P:E4 SP:69 CYC:121
CDBF  B0 2E     BCS                             A:84 X:69 Y:33 P:E4 SP:69 CYC:127
CDC1  50 2C     BVC                             A:84 X:69 Y:33 P:E4 SP:69 CYC:133
CDC3  C9 84     CMP                             A:84 X:69 Y:33 P:E4 SP:69 CYC:139
CDC5  D0 28     BNE                             A:84 X:69 Y:33 P:67 SP:69 CYC:145
CDC7  E0 69     CPX                             A:84 X:69 Y:33 P:67 SP:69 CYC:151
CDC9  D0 24     BNE                             A:84 X:69 Y:33 P:67 SP:69 CYC:157
CDCB  C0 33     CPY                             A:84 X:69 Y:33 P:67 SP:69 CYC:163
CDCD  D0 20     BNE                             A:84 X:69 Y:33 P:67 SP:69 CYC:169
CDCF  A0 01     LDY                             A:84 X:69 Y:33 P:67 SP:69 CYC:175
CDD1  A9 04     LDA                             A:84 X:69 Y:01 P:65 SP:69 CYC:181
CDD3  38        SEC                             A:04 X:69 Y:01 P:65 SP:69 CYC:187
CDD4  B8        CLV                             A:04 X:69 Y:01 P:65 SP:69 CYC:193
CDD5  A2 00     LDX                             A:04 X:69 Y:01 P:25 SP:69 CYC:199
CDD7  BA        TSX                             A:04 X:00 Y:01 P:27 SP:69 CYC:205
CDD8  F0 15     BEQ                             A:04 X:69 Y:01 P:25 SP:69 CYC:211
CDDA  30 13     BMI                             A:04 X:69 Y:01 P:25 SP:69 CYC:217
CDDC  90 11     BCC                             A:04 X:69 Y:01 P:25 SP:69 CYC:223
CDDE  70 0F     BVS                             A:04 X:69 Y:01 P:25 SP:69 CYC:229
CDE0  E0 69     CPX                             A:04 X:69 Y:01 P:25 SP:69 CYC:235
CDE2  D0 0B     BNE                             A:04 X:69 Y:01 P:27 SP:69 CYC:241
CDE4  C9 04     CMP                             A:04 X:69 Y:01 P:27 SP:69 CYC:247
CDE6  D0 07     BNE                             A:04 X:69 Y:01 P:27 SP:69 CYC:253
CDE8  C0 01     CPY                             A:04 X:69 Y:01 P:27 SP:69 CYC:259
CDEA  D0 03     BNE                             A:04 X:69 Y:01 P:27 SP:69 CYC:265
CDEC  4C F3 CD  JMP                             A:04 X:69 Y:01 P:27 SP:69 CYC:271
CDF3  AE FF 07  LDX                             A:04 X:69 Y:01 P:27 SP:69 CYC:280
CDF6  9A        TXS                             A:04 X:FB Y:01 P:A5 SP:69 CYC:292
CDF7  60        RTS                             A:04 X:FB Y:01 P:A5 SP:FB CYC:298
C609  20 F8 CD  JSR                             A:04 X:FB Y:01 P:A5 SP:FD CYC:316
CDF8  A9 FF     LDA                             A:04 X:FB Y:01 P:A5 SP:FB CYC:334
CDFA  85 01     STA                             A:FF X:FB Y:01 P:A5 SP:FB CYC:340
CDFC  BA        TSX                             A:FF X:FB Y:01 P:A5 SP:FB CYC:  8
CDFD  8E FF 07  STX                             A:FF X:FB Y:01 P:A5 SP:FB CYC: 14
CE00  EA        NOP                             A:FF X:FB Y:01 P:A5 SP:FB CYC: 26
CE01  A2 80     LDX                             A:FF X:FB Y:01 P:A5 SP:FB CYC: 32
CE03  9A        TXS                             A:FF X:80 Y:01 P:A5 SP:FB CYC: 38
CE04  A9 33     LDA                             A:FF X:80 Y:01 P:A5 SP:80 CYC: 44
CE06  48        PHA                             A:33 X:80 Y:01 P:25 SP:80 CYC: 50
CE07  A9 69     LDA                             A:33 X:80 Y:01 P:25 SP:7F CYC: 59
CE09  48        PHA                             A:69 X:80 Y:01 P:25 SP:7F CYC: 65
CE0A  BA        TSX                             A:69 X:80 Y:01 P:25 SP:7E CYC: 74
CE0B  E0 7E     CPX                             A:69 X:7E Y:01 P:25 SP:7E CYC: 80
CE0D  D0 20     BNE                             A:69 X:7E Y:01 P:27 SP:7E CYC: 86
CE0F  68        PLA                             A:69 X:7E Y:01 P:27 SP:7E CYC: 92
CE10  C9 69     CMP                             A:69 X:7E Y:01 P:25 SP:7F CYC:104
CE12  D0 1B     BNE                             A:69 X:7E Y:01 P:27 SP:7F CYC:110
CE14  68        PLA                             A:69 X:7E Y:01 P:27 SP:7F CYC:116
CE15  C9 33     CMP                             A:33 X:7E Y:01 P:25 SP:80 CYC:128
CE17  D0 16     BNE                             A:33 X:7E Y:01 P:27 SP:80 CYC:134
CE19  BA        TSX                             A:33 X:7E Y:01 P:27 SP:80 CYC:140
CE1A  E0 80     CPX                             A:33 X:80 Y:01 P:A5 SP:80 CYC:146
CE1C  D0 11     BNE                             A:33 X:80 Y:01 P:27 SP:80 CYC:152
CE1E  AD 80 01  LDA                             A:33 X:80 Y:01 P:27 SP:80 CYC:158
CE21  C9 33     CMP                             A:33 X:80 Y:01 P:25 SP:80 CYC:170
CE23  D0 0A     BNE                             A:33 X:80 Y:01 P:27 SP:80 CYC:176
CE25  AD 7F 01  LDA                             A:33 X:80 Y:01 P:27 SP:80 CYC:182
CE28  C9 69     CMP                             A:69 X:80 Y:01 P:25 SP:80 CYC:194
CE2A  D0 03     BNE                             A:69 X:80 Y:01 P:27 SP:80 CYC:200
CE2C  4C 33 CE  JMP                             A:69 X:80 Y:01 P:27 SP:80 CYC:206
CE33  EA        NOP                             A:69 X:80 Y:01 P:27 SP:80 CYC:215
CE34  A2 80     LDX                             A:69 X:80 Y:01 P:27 SP:80 CYC:221
CE36  9A        TXS                             A:69 X:80 Y:01 P:A5 SP:80 CYC:227
CE37  20 3D CE  JSR                             A:69 X:80 Y:01 P:A5 SP:80 CYC:233
CE3D  BA        TSX                             A:69 X:80 Y:01 P:A5 SP:7E CYC:251
CE3E  E0 7E     CPX                             A:69 X:7E Y:01 P:25 SP:7E CYC:257
CE40  D0 19     BNE                             A:69 X:7E Y:01 P:27 SP:7E CYC:263
CE42  68        PLA                             A:69 X:7E Y:01 P:27 SP:7E CYC:269
CE43  68        PLA                             A:39 X:7E Y:01 P:25 SP:7F CYC:281
CE44  BA        TSX                             A:CE X:7E Y:01 P:A5 SP:80 CYC:293
CE45  E0 80     CPX                             A:CE X:80 Y:01 P:A5 SP:80 CYC:299
CE47  D0 12     BNE                             A:CE X:80 Y:01 P:27 SP:80 CYC:305
CE49  A9 00     LDA                             A:CE X:80 Y:01 P:27 SP:80 CYC:311
CE4B  20 4E CE  JSR                             A:00 X:80 Y:01 P:27 SP:80 CYC:317
CE4E  68        PLA                             A:00 X:80 Y:01 P:27 SP:7E CYC:335
CE4F  C9 4D     CMP                             A:4D X:80 Y:01 P:25 SP:7F CYC:  6
CE51  D0 08     BNE                             A:4D X:80 Y:01 P:27 SP:7F CYC: 12
CE53  68        PLA                             A:4D X:80 Y:01 P:27 SP:7F CYC: 18
CE54  C9 CE     CMP                             A:CE X:80 Y:01 P:A5 SP:80 CYC: 30
CE56  D0 03     BNE                             A:CE X:80 Y:01 P:27 SP:80 CYC: 36
CE58  4C 5F CE  JMP                             A:CE X:80 Y:01 P:27 SP:80 CYC: 42
CE5F  EA        NOP                             A:CE X:80 Y:01 P:27 SP:80 CYC: 51
CE60  A9 CE     LDA                             A:CE X:80 Y:01 P:27 SP:80 CYC: 57
CE62  48        PHA                             A:CE X:80 Y:01 P:A5 SP:80 CYC: 63
CE63  A9 66     LDA                             A:CE X:80 Y:01 P:A5 SP:7F CYC: 72
CE65  48        PHA                             A:66 X:80 Y:01 P:25 SP:7F CYC: 78
CE66  60        RTS                             A:66 X:80 Y:01 P:25 SP:7E CYC: 87
CE67  A2 77     LDX                             A:66 X:80 Y:01 P:25 SP:80 CYC:105
CE69  A0 69     LDY                             A:66 X:77 Y:01 P:25 SP:80 CYC:111
CE6B  18        CLC                             A:66 X:77 Y:69 P:25 SP:80 CYC:117
CE6C  24 01     BIT                             A:66 X:77 Y:69 P:24 SP:80 CYC:123
CE6E  A9 83     LDA                             A:66 X:77 Y:69 P:E4 SP:80 CYC:132
CE70  20 66 CE  JSR                             A:83 X:77 Y:69 P:E4 SP:80 CYC:138
CE66  60        RTS                             A:83 X:77 Y:69 P:E4 SP:7E CYC:156
CE73  F0 24     BEQ                             A:83 X:77 Y:69 P:E4 SP:80 CYC:174
CE75  10 22     BPL                             A:83 X:77 Y:69 P:E4 SP:80 CYC:180
CE77  B0 20     BCS                             A:83 X:77 Y:69 P:E4 SP:80 CYC:186
CE79  50 1E     BVC                             A:83 X:77 Y:69 P:E4 SP:80 CYC:192
CE7B  C9 83     CMP                             A:83 X:77 Y:69 P:E4 SP:80 CYC:198
CE7D  D0 1A     BNE                             A:83 X:77 Y:69 P:67 SP:80 CYC:204
CE7F  C0 69     CPY                             A:83 X:77 Y:69 P:67 SP:80 CYC:210
CE81  D0 16     BNE                             A:83 X:77 Y:69 P:67 SP:80 CYC:216
CE83  E0 77     CPX                             A:83 X:77 Y:69 P:67 SP:80 CYC:222
CE85  D0 12     BNE                             A:83 X:77 Y:69 P:67 SP:80 CYC:228
CE87  38        SEC                             A:83 X:77 Y:69 P:67 SP:80 CYC:234
CE88  B8        CLV                             A:83 X:77 Y:69 P:67 SP:80 CYC:240
CE89  A9 00     LDA                             A:83 X:77 Y:69 P:27 SP:80 CYC:246
CE8B  20 66 CE  JSR                             A:00 X:77 Y:69 P:27 SP:80 CYC:252
CE66  60        RTS                             A:00 X:77 Y:69 P:27 SP:7E CYC:270
CE8E  D0 09     BNE                             A:00 X:77 Y:69 P:27 SP:80 CYC:288
CE90  30 07     BMI                             A:00 X:77 Y:69 P:27 SP:80 CYC:294
CE92  90 05     BCC                             A:00 X:77 Y:69 P:27 SP:80 CYC:300
CE94  70 03     BVS                             A:00 X:77 Y:69 P:27 SP:80 CYC:306
CE96  4C 9D CE  JMP                             A:00 X:77 Y:69 P:27 SP:80 CYC:312
CE9D  EA        NOP                             A:00 X:77 Y:69 P:27 SP:80 CYC:321
CE9E  A9 CE     LDA                             A:00 X:77 Y:69 P:27 SP:80 CYC:327
CEA0  48        PHA                             A:CE X:77 Y:69 P:A5 SP:80 CYC:333
CEA1  A9 AE     LDA                             A:CE X:77 Y:69 P:A5 SP:7F CYC:  1
CEA3  48        PHA                             A:AE X:77 Y:69 P:A5 SP:7F CYC:  7
CEA4  A9 65     LDA                             A:AE X:77 Y:69 P:A5 SP:7E CYC: 16
CEA6  48        PHA                             A:65 X:77 Y:69 P:25 SP:7E CYC: 22
CEA7  A9 55     LDA                             A:65 X:77 Y:69 P:25 SP:7D CYC: 31
CEA9  A0 88     LDY                             A:55 X:77 Y:69 P:25 SP:7D CYC: 37
CEAB  A2 99     LDX                             A:55 X:77 Y:88 P:A5 SP:7D CYC: 43
CEAD  40        RTI                             A:55 X:99 Y:88 P:A5 SP:7D CYC: 49
CEAE  30 35     BMI                             A:55 X:99 Y:88 P:65 SP:80 CYC: 67
CEB0  50 33     BVC                             A:55 X:99 Y:88 P:65 SP:80 CYC: 73
CEB2  F0 31     BEQ                             A:55 X:99 Y:88 P:65 SP:80 CYC: 79
CEB4  90 2F     BCC                             A:55 X:99 Y:88 P:65 SP:80 CYC: 85
CEB6  C9 55     CMP                             A:55 X:99 Y:88 P:65 SP:80 CYC: 91
CEB8  D0 2B     BNE                             A:55 X:99 Y:88 P:67 SP:80 CYC: 97
CEBA  C0 88     CPY                             A:55 X:99 Y:88 P:67 SP:80 CYC:103
CEBC  D0 27     BNE                             A:55 X:99 Y:88 P:67 SP:80 CYC:109
CEBE  E0 99     CPX                             A:55 X:99 Y:88 P:67 SP:80 CYC:115
CEC0  D0 23     BNE                             A:55 X:99 Y:88 P:67 SP:80 CYC:121
CEC2  A9 CE     LDA                             A:55 X:99 Y:88 P:67 SP:80 CYC:127
CEC4  48        PHA                             A:CE X:99 Y:88 P:E5 SP:80 CYC:133
CEC5  A9 CE     LDA                             A:CE X:99 Y:88 P:E5 SP:7F CYC:142
CEC7  48        PHA                             A:CE X:99 Y:88 P:E5 SP:7F CYC:148
CEC8  A9 87     LDA                             A:CE X:99 Y:88 P:E5 SP:7E CYC:157
CECA  48        PHA                             A:87 X:99 Y:88 P:E5 SP:7E CYC:163
CECB  A9 55     LDA                             A:87 X:99 Y:88 P:E5 SP:7D CYC:172
CECD  40        RTI                             A:55 X:99 Y:88 P:65 SP:7D CYC:178
CECE  10 15     BPL                             A:55 X:99 Y:88 P:A7 SP:80 CYC:196
CED0  70 13     BVS                             A:55 X:99 Y:88 P:A7 SP:80 CYC:202
CED2  D0 11     BNE                             A:55 X:99 Y:88 P:A7 SP:80 CYC:208
CED4  90 0F     BCC                             A:55 X:99 Y:88 P:A7 SP:80 CYC:214
CED6  C9 55     CMP                             A:55 X:99 Y:88 P:A7 SP:80 CYC:220
CED8  D0 0B     BNE                             A:55 X:99 Y:88 P:27 SP:80 CYC:226
CEDA  C0 88     CPY                             A:55 X:99 Y:88 P:27 SP:80 CYC:232
CEDC  D0 07     BNE                             A:55 X:99 Y:88 P:27 SP:80 CYC:238
CEDE  E0 99     CPX                             A:55 X:99 Y:88 P:27 SP:80 CYC:244
CEE0  D0 03     BNE                             A:55 X:99 Y:88 P:27 SP:80 CYC:250
CEE2  4C E9 CE  JMP                             A:55 X:99 Y:88 P:27 SP:80 CYC:256
CEE9  AE FF 07  LDX                             A:55 X:99 Y:88 P:27 SP:80 CYC:265
CEEC  9A        TXS                             A:55 X:FB Y:88 P:A5 SP:80 CYC:277
CEED  60        RTS                             A:55 X:FB Y:88 P:A5 SP:FB CYC:283
C60C  20 EE CE  JSR                             A:55 X:FB Y:88 P:A5 SP:FD CYC:301
CEEE  A2 55     LDX                             A:55 X:FB Y:88 P:A5 SP:FB CYC:319
CEF0  A0 69     LDY                             A:55 X:55 Y:88 P:25 SP:FB CYC:325
CEF2  A9 FF     LDA                             A:55 X:55 Y:69 P:25 SP:FB CYC:331
CEF4  85 01     STA                             A:FF X:55 Y:69 P:A5 SP:FB CYC:337
CEF6  EA        NOP                             A:FF X:55 Y:69 P:A5 SP:FB CYC:  5
CEF7  24 01     BIT                             A:FF X:55 Y:69 P:A5 SP:FB CYC: 11
CEF9  38        SEC                             A:FF X:55 Y:69 P:E5 SP:FB CYC: 20
CEFA  A9 01     LDA                             A:FF X:55 Y:69 P:E5 SP:FB CYC: 26
CEFC  4A        LSR                             A:01 X:55 Y:69 P:65 SP:FB CYC: 32
CEFD  90 1D     BCC                             A:00 X:55 Y:69 P:67 SP:FB CYC: 38
CEFF  D0 1B     BNE                             A:00 X:55 Y:69 P:67 SP:FB CYC: 44
CF01  30 19     BMI                             A:00 X:55 Y:69 P:67 SP:FB CYC: 50
CF03  50 17     BVC                             A:00 X:55 Y:69 P:67 SP:FB CYC: 56
CF05  C9 00     CMP                             A:00 X:55 Y:69 P:67 SP:FB CYC: 62
CF07  D0 13     BNE                             A:00 X:55 Y:69 P:67 SP:FB CYC: 68
CF09  B8        CLV                             A:00 X:55 Y:69 P:67 SP:FB CYC: 74
CF0A  A9 AA     LDA                             A:00 X:55 Y:69 P:27 SP:FB CYC: 80
CF0C  4A        LSR                             A:AA X:55 Y:69 P:A5 SP:FB CYC: 86
CF0D  B0 0D     BCS                             A:55 X:55 Y:69 P:24 SP:FB CYC: 92
CF0F  F0 0B     BEQ                             A:55 X:55 Y:69 P:24 SP:FB CYC: 98
CF11  30 09     BMI                             A:55 X:55 Y:69 P:24 SP:FB CYC:104
CF13  70 07     BVS                             A:55 X:55 Y:69 P:24 SP:FB CYC:110
CF15  C9 55     CMP                             A:55 X:55 Y:69 P:24 SP:FB CYC:116
CF17  D0 03     BNE                             A:55 X:55 Y:69 P:27 SP:FB CYC:122
CF19  4C 20 CF  JMP                             A:55 X:55 Y:69 P:27 SP:FB CYC:128
CF20  EA        NOP                             A:55 X:55 Y:69 P:27 SP:FB CYC:137
CF21  24 01     BIT                             A:55 X:55 Y:69 P:27 SP:FB CYC:143
CF23  38        SEC                             A:55 X:55 Y:69 P:E5 SP:FB CYC:152
CF24  A9 80     LDA                             A:55 X:55 Y:69 P:E5 SP:FB CYC:158
CF26  0A        ASL                             A:80 X:55 Y:69 P:E5 SP:FB CYC:164
CF27  90 1E     BCC                             A:00 X:55 Y:69 P:67 SP:FB CYC:170
CF29  D0 1C     BNE                             A:00 X:55 Y:69 P:67 SP:FB CYC:176
CF2B  30 1A     BMI                             A:00 X:55 Y:69 P:67 SP:FB CYC:182
CF2D  50 18     BVC                             A:00 X:55 Y:69 P:67 SP:FB CYC:188
CF2F  C9 00     CMP                             A:00 X:55 Y:69 P:67 SP:FB CYC:194
CF31  D0 14     BNE                             A:00 X:55 Y:69 P:67 SP:FB CYC:200
CF33  B8        CLV                             A:00 X:55 Y:69 P:67 SP:FB CYC:206
CF34  38        SEC                             A:00 X:55 Y:69 P:27 SP:FB CYC:212
CF35  A9 55     LDA                             A:00 X:55 Y:69 P:27 SP:FB CYC:218
CF37  0A        ASL                             A:55 X:55 Y:69 P:25 SP:FB CYC:224
CF38  B0 0D     BCS                             A:AA X:55 Y:69 P:A4 SP:FB CYC:230
CF3A  F0 0B     BEQ                             A:AA X:55 Y:69 P:A4 SP:FB CYC:236
CF3C  10 09     BPL                             A:AA X:55 Y:69 P:A4 SP:FB CYC:242
CF3E  70 07     BVS                             A:AA X:55 Y:69 P:A4 SP:FB CYC:248
CF40  C9 AA     CMP                             A:AA X:55 Y:69 P:A4 SP:FB CYC:254
CF42  D0 03     BNE                             A:AA X:55 Y:69 P:27 SP:FB CYC:260
CF44  4C 4B CF  JMP                             A:AA X:55 Y:69 P:27 SP:FB CYC:266
CF4B  EA        NOP                             A:AA X:55 Y:69 P:27 SP:FB CYC:275
CF4C  24 01     BIT                             A:AA X:55 Y:69 P:27 SP:FB CYC:281
CF4E  38        SEC                             A:AA X:55 Y:69 P:E5 SP:FB CYC:290
CF4F  A9 01     LDA                             A:AA X:55 Y:69 P:E5 SP:FB CYC:296
CF51  6A        ROR                             A:01 X:55 Y:69 P:65 SP:FB CYC:302
CF52  90 1E     BCC                             A:80 X:55 Y:69 P:E5 SP:FB CYC:308
CF54  F0 1C     BEQ                             A:80 X:55 Y:69 P:E5 SP:FB CYC:314
CF56  10 1A     BPL                             A:80 X:55 Y:69 P:E5 SP:FB CYC:320
CF58  50 18     BVC                             A:80 X:55 Y:69 P:E5 SP:FB CYC:326
CF5A  C9 80     CMP                             A:80 X:55 Y:69 P:E5 SP:FB CYC:332
CF5C  D0 14     BNE                             A:80 X:55 Y:69 P:67 SP:FB CYC:338
CF5E  B8        CLV                             A:80 X:55 Y:69 P:67 SP:FB CYC:  3
CF5F  18        CLC                             A:80 X:55 Y:69 P:27 SP:FB CYC:  9
CF60  A9 55     LDA                             A:80 X:55 Y:69 P:26 SP:FB CYC: 15
CF62  6A        ROR                             A:55 X:55 Y:69 P:24 SP:FB CYC: 21
CF63  90 0D     BCC                             A:2A X:55 Y:69 P:25 SP:FB CYC: 27
CF65  F0 0B     BEQ                             A:2A X:55 Y:69 P:25 SP:FB CYC: 33
CF67  30 09     BMI                             A:2A X:55 Y:69 P:25 SP:FB CYC: 39
CF69  70 07     BVS                             A:2A X:55 Y:69 P:25 SP:FB CYC: 45
CF6B  C9 2A     CMP                             A:2A X:55 Y:69 P:25 SP:FB CYC: 51
CF6D  D0 03     BNE                             A:2A X:55 Y:69 P:27 SP:FB CYC: 57
CF6F  4C 76 CF  JMP                             A:2A X:55 Y:69 P:27 SP:FB CYC: 63
CF76  EA        NOP                             A:2A X:55 Y:69 P:27 SP:FB CYC: 72
CF77  24 01     BIT                             A:2A X:55 Y:69 P:27 SP:FB CYC: 78
CF79  38        SEC                             A:2A X:55 Y:69 P:E5 SP:FB CYC: 87
CF7A  A9 80     LDA                             A:2A X:55 Y:69 P:E5 SP:FB CYC: 93
CF7C  2A        ROL                             A:80 X:55 Y:69 P:E5 SP:FB CYC: 99
CF7D  90 1E     BCC                             A:01 X:55 Y:69 P:65 SP:FB CYC:105
CF7F  F0 1C     BEQ                             A:01 X:55 Y:69 P:65 SP:FB CYC:111
CF81  30 1A     BMI                             A:01 X:55 Y:69 P:65 SP:FB CYC:117
CF83  50 18     BVC                             A:01 X:55 Y:69 P:65 SP:FB CYC:123
CF85  C9 01     CMP                             A:01 X:55 Y:69 P:65 SP:FB CYC:129
CF87  D0 14     BNE                             A:01 X:55 Y:69 P:67 SP:FB CYC:135
CF89  B8        CLV                             A:01 X:55 Y:69 P:67 SP:FB CYC:141
CF8A  18        CLC                             A:01 X:55 Y:69 P:27 SP:FB CYC:147
CF8B  A9 55     LDA                             A:01 X:55 Y:69 P:26 SP:FB CYC:153
CF8D  2A        ROL                             A:55 X:55 Y:69 P:24 SP:FB CYC:159
CF8E  B0 0D     BCS                             A:AA X:55 Y:69 P:A4 SP:FB CYC:165
CF90  F0 0B     BEQ                             A:AA X:55 Y:69 P:A4 SP:FB CYC:171
CF92  10 09     BPL                             A:AA X:55 Y:69 P:A4 SP:FB CYC:177
CF94  70 07     BVS                             A:AA X:55 Y:69 P:A4 SP:FB CYC:183
CF96  C9 AA     CMP                             A:AA X:55 Y:69 P:A4 SP:FB CYC:189
CF98  D0 03     BNE                             A:AA X:55 Y:69 P:27 SP:FB CYC:195
CF9A  4C A1 CF  JMP                             A:AA X:55 Y:69 P:27 SP:FB CYC:201
CFA1  60        RTS                             A:AA X:55 Y:69 P:27 SP:FB CYC:210
C60F  20 A2 CF  JSR                             A:AA X:55 Y:69 P:27 SP:FD CYC:228
CFA2  A5 00     LDA                             A:AA X:55 Y:69 P:27 SP:FB CYC:246
CFA4  8D FF 07  STA                             A:00 X:55 Y:69 P:27 SP:FB CYC:255
CFA7  A9 00     LDA                             A:00 X:55 Y:69 P:27 SP:FB CYC:267
CFA9  85 80     STA                             A:00 X:55 Y:69 P:27 SP:FB CYC:273
CFAB  A9 02     LDA                             A:00 X:55 Y:69 P:27 SP:FB CYC:282
CFAD  85 81     STA                             A:02 X:55 Y:69 P:25 SP:FB CYC:288
CFAF  A9 FF     LDA                             A:02 X:55 Y:69 P:25 SP:FB CYC:297
CFB1  85 01     STA                             A:FF X:55 Y:69 P:A5 SP:FB CYC:303
CFB3  A9 00     LDA                             A:FF X:55 Y:69 P:A5 SP:FB CYC:312
CFB5  85 82     STA                             A:00 X:55 Y:69 P:27 SP:FB CYC:318
CFB7  A9 03     LDA                             A:00 X:55 Y:69 P:27 SP:FB CYC:327
CFB9  85 83     STA                             A:03 X:55 Y:69 P:25 SP:FB CYC:333
CFBB  85 84     STA                             A:03 X:55 Y:69 P:25 SP:FB CYC:  1
CFBD  A9 00     LDA                             A:03 X:55 Y:69 P:25 SP:FB CYC: 10
CFBF  85 FF     STA                             A:00 X:55 Y:69 P:27 SP:FB CYC: 16
CFC1  A9 04     LDA                             A:00 X:55 Y:69 P:27 SP:FB CYC: 25
CFC3  85 00     STA                             A:04 X:55 Y:69 P:25 SP:FB CYC: 31
CFC5  A9 5A     LDA                             A:04 X:55 Y:69 P:25 SP:FB CYC: 40
CFC7  8D 00 02  STA                             A:5A X:55 Y:69 P:25 SP:FB CYC: 46
CFCA  A9 5B     LDA                             A:5A X:55 Y:69 P:25 SP:FB CYC: 58
CFCC  8D 00 03  STA                             A:5B X:55 Y:69 P:25 SP:FB CYC: 64
CFCF  A9 5C     LDA                             A:5B X:55 Y:69 P:25 SP:FB CYC: 76
CFD1  8D 03 03  STA                             A:5C X:55 Y:69 P:25 SP:FB CYC: 82
CFD4  A9 5D     LDA                             A:5C X:55 Y:69 P:25 SP:FB CYC: 94
CFD6  8D 00 04  STA                             A:5D X:55 Y:69 P:25 SP:FB CYC:100
CFD9  A2 00     LDX                             A:5D X:55 Y:69 P:25 SP:FB CYC:112
CFDB  A1 80     LDA                             A:5D X:00 Y:69 P:27 SP:FB CYC:118
CFDD  C9 5A     CMP                             A:5A X:00 Y:69 P:25 SP:FB CYC:136
CFDF  D0 1F     BNE                             A:5A X:00 Y:69 P:27 SP:FB CYC:142
CFE1  E8        INX                             A:5A X:00 Y:69 P:27 SP:FB CYC:148
CFE2  E8        INX                             A:5A X:01 Y:69 P:25 SP:FB CYC:154
CFE3  A1 80     LDA                             A:5A X:02 Y:69 P:25 SP:FB CYC:160
CFE5  C9 5B     CMP                             A:5B X:02 Y:69 P:25 SP:FB CYC:178
CFE7  D0 17     BNE                             A:5B X:02 Y:69 P:27 SP:FB CYC:184
CFE9  E8        INX                             A:5B X:02 Y:69 P:27 SP:FB CYC:190
CFEA  A1 80     LDA                             A:5B X:03 Y:69 P:25 SP:FB CYC:196
CFEC  C9 5C     CMP                             A:5C X:03 Y:69 P:25 SP:FB CYC:214
CFEE  D0 10     BNE                             A:5C X:03 Y:69 P:27 SP:FB CYC:220
CFF0  A2 00     LDX                             A:5C X:03 Y:69 P:27 SP:FB CYC:226
CFF2  A1 FF     LDA                             A:5C X:00 Y:69 P:27 SP:FB CYC:232
CFF4  C9 5D     CMP                             A:FC X:00 Y:69 P:A5 SP:FB CYC:250
CFF6  D0 08     BNE                             A:FC X:00 Y:69 P:A5 SP:FB CYC:256
D000  A9 58     LDA                             A:FC X:00 Y:69 P:A5 SP:FB CYC:265
D002  8D FF 07  STA                             A:58 X:00 Y:69 P:25 SP:FB CYC:271
D005  A9 AA     LDA                             A:58 X:00 Y:69 P:25 SP:FB CYC:283
D007  A2 00     LDX                             A:AA X:00 Y:69 P:A5 SP:FB CYC:289
D009  81 80     STA                             A:AA X:00 Y:69 P:27 SP:FB CYC:295
D00B  E8        INX                             A:AA X:00 Y:69 P:27 SP:FB CYC:313
D00C  E8        INX                             A:AA X:01 Y:69 P:25 SP:FB CYC:319
D00D  A9 AB     LDA                             A:AA X:02 Y:69 P:25 SP:FB CYC:325
D00F  81 80     STA                             A:AB X:02 Y:69 P:A5 SP:FB CYC:331
D011  E8        INX                             A:AB X:02 Y:69 P:A5 SP:FB CYC:  8
D012  A9 AC     LDA                             A:AB X:03 Y:69 P:25 SP:FB CYC: 14
D014  81 80     STA                             A:AC X:03 Y:69 P:A5 SP:FB CYC: 20
D016  A2 00     LDX                             A:AC X:03 Y:69 P:A5 SP:FB CYC: 38
D018  A9 AD     LDA                             A:AC X:00 Y:69 P:27 SP:FB CYC: 44
D01A  81 FF     STA                             A:AD X:00 Y:69 P:A5 SP:FB CYC: 50
D01C  AD 00 02  LDA                             A:AD X:00 Y:69 P:A5 SP:FB CYC: 68
D01F  C9 AA     CMP                             A:AA X:00 Y:69 P:A5 SP:FB CYC: 80
D021  D0 15     BNE                             A:AA X:00 Y:69 P:27 SP:FB CYC: 86
D023  AD 00 03  LDA                             A:AA X:00 Y:69 P:27 SP:FB CYC: 92
D026  C9 AB     CMP                             A:AB X:00 Y:69 P:A5 SP:FB CYC:104
D028  D0 0E     BNE                             A:AB X:00 Y:69 P:27 SP:FB CYC:110
D02A  AD 03 03  LDA                             A:AB X:00 Y:69 P:27 SP:FB CYC:116
D02D  C9 AC     CMP                             A:AC X:00 Y:69 P:A5 SP:FB CYC:128
D02F  D0 07     BNE                             A:AC X:00 Y:69 P:27 SP:FB CYC:134
D031  AD 00 04  LDA                             A:AC X:00 Y:69 P:27 SP:FB CYC:140
D034  C9 AD     CMP                             A:5D X:00 Y:69 P:25 SP:FB CYC:152
D036  F0 05     BEQ                             A:5D X:00 Y:69 P:A4 SP:FB CYC:158
D038  A9 59     LDA                             A:5D X:00 Y:69 P:A4 SP:FB CYC:164
D03A  8D FF 07  STA                             A:59 X:00 Y:69 P:24 SP:FB CYC:170
D03D  AD FF 07  LDA                             A:59 X:00 Y:69 P:24 SP:FB CYC:182
D040  85 00     STA                             A:59 X:00 Y:69 P:24 SP:FB CYC:194
D042  A9 00     LDA                             A:59 X:00 Y:69 P:24 SP:FB CYC:203
D044  8D 00 03  STA                             A:00 X:00 Y:69 P:26 SP:FB CYC:209
D047  A9 AA     LDA                             A:00 X:00 Y:69 P:26 SP:FB CYC:221
D049  8D 00 02  STA                             A:AA X:00 Y:69 P:A4 SP:FB CYC:227
D04C  A2 00     LDX                             A:AA X:00 Y:69 P:A4 SP:FB CYC:239
D04E  A0 5A     LDY                             A:AA X:00 Y:69 P:26 SP:FB CYC:245
D050  20 B6 F7  JSR                             A:AA X:00 Y:5A P:24 SP:FB CYC:251
F7B6  18        CLC                             A:AA X:00 Y:5A P:24 SP:F9 CYC:269
F7B7  A9 FF     LDA                             A:AA X:00 Y:5A P:24 SP:F9 CYC:275
F7B9  85 01     STA                             A:FF X:00 Y:5A P:A4 SP:F9 CYC:281
F7BB  24 01     BIT                             A:FF X:00 Y:5A P:A4 SP:F9 CYC:290
F7BD  A9 55     LDA                             A:FF X:00 Y:5A P:E4 SP:F9 CYC:299
F7BF  60        RTS                             A:55 X:00 Y:5A P:64 SP:F9 CYC:305
D053  01 80     ORA                             A:55 X:00 Y:5A P:64 SP:FB CYC:323
D055  20 C0 F7  JSR                             A:FF X:00 Y:5A P:E4 SP:FB CYC:  0
F7C0  B0 09     BCS                             A:FF X:00 Y:5A P:E4 SP:F9 CYC: 18
F7C2  10 07     BPL                             A:FF X:00 Y:5A P:E4 SP:F9 CYC: 24
F7C4  C9 FF     CMP                             A:FF X:00 Y:5A P:E4 SP:F9 CYC: 30
F7C6  D0 03     BNE                             A:FF X:00 Y:5A P:67 SP:F9 CYC: 36
F7C8  50 01     BVC                             A:FF X:00 Y:5A P:67 SP:F9 CYC: 42
F7CA  60        RTS                             A:FF X:00 Y:5A P:67 SP:F9 CYC: 48
D058  C8        INY                             A:FF X:00 Y:5A P:67 SP:FB CYC: 66
D059  20 CE F7  JSR                             A:FF X:00 Y:5B P:65 SP:FB CYC: 72
F7CE  38        SEC                             A:FF X:00 Y:5B P:65 SP:F9 CYC: 90
F7CF  B8        CLV                             A:FF X:00 Y:5B P:65 SP:F9 CYC: 96
F7D0  A9 00     LDA                             A:FF X:00 Y:5B P:25 SP:F9 CYC:102
F7D2  60        RTS                             A:00 X:00 Y:5B P:27 SP:F9 CYC:108
D05C  01 82     ORA                             A:00 X:00 Y:5B P:27 SP:FB CYC:126
D05E  20 D3 F7  JSR                             A:00 X:00 Y:5B P:27 SP:FB CYC:144
F7D3  D0 07     BNE                             A:00 X:00 Y:5B P:27 SP:F9 CYC:162
F7D5  70 05     BVS                             A:00 X:00 Y:5B P:27 SP:F9 CYC:168
F7D7  90 03     BCC                             A:00 X:00 Y:5B P:27 SP:F9 CYC:174
F7D9  30 01     BMI                             A:00 X:00 Y:5B P:27 SP:F9 CYC:180
F7DB  60        RTS                             A:00 X:00 Y:5B P:27 SP:F9 CYC:186
D061  C8        INY                             A:00 X:00 Y:5B P:27 SP:FB CYC:204
D062  20 DF F7  JSR                             A:00 X:00 Y:5C P:25 SP:FB CYC:210
F7DF  18        CLC                             A:00 X:00 Y:5C P:25 SP:F9 CYC:228
F7E0  24 01     BIT                             A:00 X:00 Y:5C P:24 SP:F9 CYC:234
F7E2  A9 55     LDA                             A:00 X:00 Y:5C P:E6 SP:F9 CYC:243
F7E4  60        RTS                             A:55 X:00 Y:5C P:64 SP:F9 CYC:249
D065  21 80     AND                             A:55 X:00 Y:5C P:64 SP:FB CYC:267
D067  20 E5 F7  JSR                             A:00 X:00 Y:5C P:66 SP:FB CYC:285
F7E5  D0 07     BNE                             A:00 X:00 Y:5C P:66 SP:F9 CYC:303
F7E7  50 05     BVC                             A:00 X:00 Y:5C P:66 SP:F9 CYC:309
F7E9  B0 03     BCS                             A:00 X:00 Y:5C P:66 SP:F9 CYC:315
F7EB  30 01     BMI                             A:00 X:00 Y:5C P:66 SP:F9 CYC:321
F7ED  60        RTS                             A:00 X:00 Y:5C P:66 SP:F9 CYC:327
D06A  C8        INY                             A:00 X:00 Y:5C P:66 SP:FB CYC:  4
D06B  A9 EF     LDA                             A:00 X:00 Y:5D P:64 SP:FB CYC: 10
D06D  8D 00 03  STA                             A:EF X:00 Y:5D P:E4 SP:FB CYC: 16
D070  20 F1 F7  JSR                             A:EF X:00 Y:5D P:E4 SP:FB CYC: 28
F7F1  38        SEC                             A:EF X:00 Y:5D P:E4 SP:F9 CYC: 46
F7F2  B8        CLV                             A:EF X:00 Y:5D P:E5 SP:F9 CYC: 52
F7F3  A9 F8     LDA                             A:EF X:00 Y:5D P:A5 SP:F9 CYC: 58
F7F5  60        RTS                             A:F8 X:00 Y:5D P:A5 SP:F9 CYC: 64
D073  21 82     AND                             A:F8 X:00 Y:5D P:A5 SP:FB CYC: 82
D075  20 F6 F7  JSR                             A:E8 X:00 Y:5D P:A5 SP:FB CYC:100
F7F6  90 09     BCC                             A:E8 X:00 Y:5D P:A5 SP:F9 CYC:118
F7F8  10 07     BPL                             A:E8 X:00 Y:5D P:A5 SP:F9 CYC:124
F7FA  C9 E8     CMP                             A:E8 X:00 Y:5D P:A5 SP:F9 CYC:130
F7FC  D0 03     BNE                             A:E8 X:00 Y:5D P:27 SP:F9 CYC:136
F7FE  70 01     BVS                             A:E8 X:00 Y:5D P:27 SP:F9 CYC:142
F800  60        RTS                             A:E8 X:00 Y:5D P:27 SP:F9 CYC:148
D078  C8        INY                             A:E8 X:00 Y:5D P:27 SP:FB CYC:166
D079  20 04 F8  JSR                             A:E8 X:00 Y:5E P:25 SP:FB CYC:172
F804  18        CLC                             A:E8 X:00 Y:5E P:25 SP:F9 CYC:190
F805  24 01     BIT                             A:E8 X:00 Y:5E P:24 SP:F9 CYC:196
F807  A9 5F     LDA                             A:E8 X:00 Y:5E P:E4 SP:F9 CYC:205
F809  60        RTS                             A:5F X:00 Y:5E P:64 SP:F9 CYC:211
D07C  41 80     EOR                             A:5F X:00 Y:5E P:64 SP:FB CYC:229
D07E  20 0A F8  JSR                             A:F5 X:00 Y:5E P:E4 SP:FB CYC:247
F80A  B0 09     BCS                             A:F5 X:00 Y:5E P:E4 SP:F9 CYC:265
F80C  10 07     BPL                             A:F5 X:00 Y:5E P:E4 SP:F9 CYC:271
F80E  C9 F5     CMP                             A:F5 X:00 Y:5E P:E4 SP:F9 CYC:277
F810  D0 03     BNE                             A:F5 X:00 Y:5E P:67 SP:F9 CYC:283
F812  50 01     BVC                             A:F5 X:00 Y:5E P:67 SP:F9 CYC:289
F814  60        RTS                             A:F5 X:00 Y:5E P:67 SP:F9 CYC:295
D081  C8        INY                             A:F5 X:00 Y:5E P:67 SP:FB CYC:313
D082  A9 70     LDA                             A:F5 X:00 Y:5F P:65 SP:FB CYC:319
D084  8D 00 03  STA                             A:70 X:00 Y:5F P:65 SP:FB CYC:325
D087  20 18 F8  JSR                             A:70 X:00 Y:5F P:65 SP:FB CYC:337
F818  38        SEC                             A:70 X:00 Y:5F P:65 SP:F9 CYC: 14
F819  B8        CLV                             A:70 X:00 Y:5F P:65 SP:F9 CYC: 20
F81A  A9 70     LDA                             A:70 X:00 Y:5F P:25 SP:F9 CYC: 26
F81C  60        RTS                             A:70 X:00 Y:5F P:25 SP:F9 CYC: 32
D08A  41 82     EOR                             A:70 X:00 Y:5F P:25 SP:FB CYC: 50
D08C  20 1D F8  JSR                             A:00 X:00 Y:5F P:27 SP:FB CYC: 68
F81D  D0 07     BNE                             A:00 X:00 Y:5F P:27 SP:F9 CYC: 86
F81F  70 05     BVS                             A:00 X:00 Y:5F P:27 SP:F9 CYC: 92
F821  90 03     BCC                             A:00 X:00 Y:5F P:27 SP:F9 CYC: 98
F823  30 01     BMI                             A:00 X:00 Y:5F P:27 SP:F9 CYC:104
F825  60        RTS                             A:00 X:00 Y:5F P:27 SP:F9 CYC:110
D08F  C8        INY                             A:00 X:00 Y:5F P:27 SP:FB CYC:128
D090  A9 69     LDA                             A:00 X:00 Y:60 P:25 SP:FB CYC:134
D092  8D 00 02  STA                             A:69 X:00 Y:60 P:25 SP:FB CYC:140
D095  20 29 F8  JSR                             A:69 X:00 Y:60 P:25 SP:FB CYC:152
F829  18        CLC                             A:69 X:00 Y:60 P:25 SP:F9 CYC:170
F82A  24 01     BIT                             A:69 X:00 Y:60 P:24 SP:F9 CYC:176
F82C  A9 00     LDA                             A:69 X:00 Y:60 P:E4 SP:F9 CYC:185
F82E  60        RTS                             A:00 X:00 Y:60 P:66 SP:F9 CYC:191
D098  61 80     ADC                             A:00 X:00 Y:60 P:66 SP:FB CYC:209
D09A  20 2F F8  JSR                             A:69 X:00 Y:60 P:24 SP:FB CYC:227
F82F  30 09     BMI                             A:69 X:00 Y:60 P:24 SP:F9 CYC:245
F831  B0 07     BCS                             A:69 X:00 Y:60 P:24 SP:F9 CYC:251
F833  C9 69     CMP                             A:69 X:00 Y:60 P:24 SP:F9 CYC:257
F835  D0 03     BNE                             A:69 X:00 Y:60 P:27 SP:F9 CYC:263
F837  70 01     BVS                             A:69 X:00 Y:60 P:27 SP:F9 CYC:269
F839  60        RTS                             A:69 X:00 Y:60 P:27 SP:F9 CYC:275
D09D  C8        INY                             A:69 X:00 Y:60 P:27 SP:FB CYC:293
D09E  20 3D F8  JSR                             A:69 X:00 Y:61 P:25 SP:FB CYC:299
F83D  38        SEC                             A:69 X:00 Y:61 P:25 SP:F9 CYC:317
F83E  24 01     BIT                             A:69 X:00 Y:61 P:25 SP:F9 CYC:323
F840  A9 00     LDA                             A:69 X:00 Y:61 P:E5 SP:F9 CYC:332
F842  60        RTS                             A:00 X:00 Y:61 P:67 SP:F9 CYC:338
D0A1  61 80     ADC                             A:00 X:00 Y:61 P:67 SP:FB CYC: 15
D0A3  20 43 F8  JSR                             A:6A X:00 Y:61 P:24 SP:FB CYC: 33
F843  30 09     BMI                             A:6A X:00 Y:61 P:24 SP:F9 CYC: 51
F845  B0 07     BCS                             A:6A X:00 Y:61 P:24 SP:F9 CYC: 57
F847  C9 6A     CMP                             A:6A X:00 Y:61 P:24 SP:F9 CYC: 63
F849  D0 03     BNE                             A:6A X:00 Y:61 P:27 SP:F9 CYC: 69
F84B  70 01     BVS                             A:6A X:00 Y:61 P:27 SP:F9 CYC: 75
F84D  60        RTS                             A:6A X:00 Y:61 P:27 SP:F9 CYC: 81
D0A6  C8        INY                             A:6A X:00 Y:61 P:27 SP:FB CYC: 99
D0A7  A9 7F     LDA                             A:6A X:00 Y:62 P:25 SP:FB CYC:105
D0A9  8D 00 02  STA                             A:7F X:00 Y:62 P:25 SP:FB CYC:111
D0AC  20 51 F8  JSR                             A:7F X:00 Y:62 P:25 SP:FB CYC:123
F851  38        SEC                             A:7F X:00 Y:62 P:25 SP:F9 CYC:141
F852  B8        CLV                             A:7F X:00 Y:62 P:25 SP:F9 CYC:147
F853  A9 7F     LDA                             A:7F X:00 Y:62 P:25 SP:F9 CYC:153
F855  60        RTS                             A:7F X:00 Y:62 P:25 SP:F9 CYC:159
D0AF  61 80     ADC                             A:7F X:00 Y:62 P:25 SP:FB CYC:177
D0B1  20 56 F8  JSR                             A:FF X:00 Y:62 P:E4 SP:FB CYC:195
F856  10 09     BPL                             A:FF X:00 Y:62 P:E4 SP:F9 CYC:213
F858  B0 07     BCS                             A:FF X:00 Y:62 P:E4 SP:F9 CYC:219
F85A  C9 FF     CMP                             A:FF X:00 Y:62 P:E4 SP:F9 CYC:225
F85C  D0 03     BNE                             A:FF X:00 Y:62 P:67 SP:F9 CYC:231
F85E  50 01     BVC                             A:FF X:00 Y:62 P:67 SP:F9 CYC:237
F860  60        RTS                             A:FF X:00 Y:62 P:67 SP:F9 CYC:243
D0B4  C8        INY                             A:FF X:00 Y:62 P:67 SP:FB CYC:261
D0B5  A9 80     LDA                             A:FF X:00 Y:63 P:65 SP:FB CYC:267
D0B7  8D 00 02  STA                             A:80 X:00 Y:63 P:E5 SP:FB CYC:273
D0BA  20 64 F8  JSR                             A:80 X:00 Y:63 P:E5 SP:FB CYC:285
F864  18        CLC                             A:80 X:00 Y:63 P:E5 SP:F9 CYC:303
F865  24 01     BIT                             A:80 X:00 Y:63 P:E4 SP:F9 CYC:309
F867  A9 7F     LDA                             A:80 X:00 Y:63 P:E4 SP:F9 CYC:318
F869  60        RTS                             A:7F X:00 Y:63 P:64 SP:F9 CYC:324
D0BD  61 80     ADC                             A:7F X:00 Y:63 P:64 SP:FB CYC:  1
D0BF  20 6A F8  JSR                             A:FF X:00 Y:63 P:A4 SP:FB CYC: 19
F86A  10 09     BPL                             A:FF X:00 Y:63 P:A4 SP:F9 CYC: 37
F86C  B0 07     BCS                             A:FF X:00 Y:63 P:A4 SP:F9 CYC: 43
F86E  C9 FF     CMP                             A:FF X:00 Y:63 P:A4 SP:F9 CYC: 49
F870  D0 03     BNE                             A:FF X:00 Y:63 P:27 SP:F9 CYC: 55
F872  70 01     BVS                             A:FF X:00 Y:63 P:27 SP:F9 CYC: 61
F874  60        RTS                             A:FF X:00 Y:63 P:27 SP:F9 CYC: 67
D0C2  C8        INY                             A:FF X:00 Y:63 P:27 SP:FB CYC: 85
D0C3  20 78 F8  JSR                             A:FF X:00 Y:64 P:25 SP:FB CYC: 91
F878  38        SEC                             A:FF X:00 Y:64 P:25 SP:F9 CYC:109
F879  B8        CLV                             A:FF X:00 Y:64 P:25 SP:F9 CYC:115
F87A  A9 7F     LDA                             A:FF X:00 Y:64 P:25 SP:F9 CYC:121
F87C  60        RTS                             A:7F X:00 Y:64 P:25 SP:F9 CYC:127
D0C6  61 80     ADC                             A:7F X:00 Y:64 P:25 SP:FB CYC:145
D0C8  20 7D F8  JSR                             A:00 X:00 Y:64 P:27 SP:FB CYC:163
F87D  D0 07     BNE                             A:00 X:00 Y:64 P:27 SP:F9 CYC:181
F87F  30 05     BMI                             A:00 X:00 Y:64 P:27 SP:F9 CYC:187
F881  70 03     BVS                             A:00 X:00 Y:64 P:27 SP:F9 CYC:193
F883  90 01     BCC                             A:00 X:00 Y:64 P:27 SP:F9 CYC:199
F885  60        RTS                             A:00 X:00 Y:64 P:27 SP:F9 CYC:205
D0CB  C8        INY                             A:00 X:00 Y:64 P:27 SP:FB CYC:223
D0CC  A9 40     LDA                             A:00 X:00 Y:65 P:25 SP:FB CYC:229
D0CE  8D 00 02  STA                             A:40 X:00 Y:65 P:25 SP:FB CYC:235
D0D1  20 89 F8  JSR                             A:40 X:00 Y:65 P:25 SP:FB CYC:247
F889  24 01     BIT                             A:40 X:00 Y:65 P:25 SP:F9 CYC:265
F88B  A9 40     LDA                             A:40 X:00 Y:65 P:E5 SP:F9 CYC:274
F88D  60        RTS                             A:40 X:00 Y:65 P:65 SP:F9 CYC:280
D0D4  C1 80     CMP                             A:40 X:00 Y:65 P:65 SP:FB CYC:298
D0D6  20 8E F8  JSR                             A:40 X:00 Y:65 P:67 SP:FB CYC:316
F88E  30 07     BMI                             A:40 X:00 Y:65 P:67 SP:F9 CYC:334
F890  90 05     BCC                             A:40 X:00 Y:65 P:67 SP:F9 CYC:340
F892  D0 03     BNE                             A:40 X:00 Y:65 P:67 SP:F9 CYC:  5
F894  50 01     BVC                             A:40 X:00 Y:65 P:67 SP:F9 CYC: 11
F896  60        RTS                             A:40 X:00 Y:65 P:67 SP:F9 CYC: 17
D0D9  C8        INY                             A:40 X:00 Y:65 P:67 SP:FB CYC: 35
D0DA  48        PHA                             A:40 X:00 Y:66 P:65 SP:FB CYC: 41
D0DB  A9 3F     LDA                             A:40 X:00 Y:66 P:65 SP:FA CYC: 50
D0DD  8D 00 02  STA                             A:3F X:00 Y:66 P:65 SP:FA CYC: 56
D0E0  68        PLA                             A:3F X:00 Y:66 P:65 SP:FA CYC: 68
D0E1  20 9A F8  JSR                             A:40 X:00 Y:66 P:65 SP:FB CYC: 80
F89A  B8        CLV                             A:40 X:00 Y:66 P:65 SP:F9 CYC: 98
F89B  60        RTS                             A:40 X:00 Y:66 P:25 SP:F9 CYC:104
D0E4  C1 80     CMP                             A:40 X:00 Y:66 P:25 SP:FB CYC:122
D0E6  20 9C F8  JSR                             A:40 X:00 Y:66 P:25 SP:FB CYC:140
F89C  F0 07     BEQ                             A:40 X:00 Y:66 P:25 SP:F9 CYC:158
F89E  30 05     BMI                             A:40 X:00 Y:66 P:25 SP:F9 CYC:164
F8A0  90 03     BCC                             A:40 X:00 Y:66 P:25 SP:F9 CYC:170
F8A2  70 01     BVS                             A:40 X:00 Y:66 P:25 SP:F9 CYC:176
F8A4  60        RTS                             A:40 X:00 Y:66 P:25 SP:F9 CYC:182
D0E9  C8        INY                             A:40 X:00 Y:66 P:25 SP:FB CYC:200
D0EA  48        PHA                             A:40 X:00 Y:67 P:25 SP:FB CYC:206
D0EB  A9 41     LDA                             A:40 X:00 Y:67 P:25 SP:FA CYC:215
D0ED  8D 00 02  STA                             A:41 X:00 Y:67 P:25 SP:FA CYC:221
D0F0  68        PLA                             A:41 X:00 Y:67 P:25 SP:FA CYC:233
D0F1  C1 80     CMP                             A:40 X:00 Y:67 P:25 SP:FB CYC:245
D0F3  20 A8 F8  JSR                             A:40 X:00 Y:67 P:A4 SP:FB CYC:263
F8A8  F0 05     BEQ                             A:40 X:00 Y:67 P:A4 SP:F9 CYC:281
F8AA  10 03     BPL                             A:40 X:00 Y:67 P:A4 SP:F9 CYC:287
F8AC  10 01     BPL                             A:40 X:00 Y:67 P:A4 SP:F9 CYC:293
F8AE  60        RTS                             A:40 X:00 Y:67 P:A4 SP:F9 CYC:299
D0F6  C8        INY                             A:40 X:00 Y:67 P:A4 SP:FB CYC:317
D0F7  48        PHA                             A:40 X:00 Y:68 P:24 SP:FB CYC:323
D0F8  A9 00     LDA                             A:40 X:00 Y:68 P:24 SP:FA CYC:332
D0FA  8D 00 02  STA                             A:00 X:00 Y:68 P:26 SP:FA CYC:338
D0FD  68        PLA                             A:00 X:00 Y:68 P:26 SP:FA CYC:  9
D0FE  20 B2 F8  JSR                             A:40 X:00 Y:68 P:24 SP:FB CYC: 21
F8B2  A9 80     LDA                             A:40 X:00 Y:68 P:24 SP:F9 CYC: 39
F8B4  60        RTS                             A:80 X:00 Y:68 P:A4 SP:F9 CYC: 45
D101  C1 80     CMP                             A:80 X:00 Y:68 P:A4 SP:FB CYC: 63
D103  20 B5 F8  JSR                             A:80 X:00 Y:68 P:A5 SP:FB CYC: 81
F8B5  F0 05     BEQ                             A:80 X:00 Y:68 P:A5 SP:F9 CYC: 99
F8B7  10 03     BPL                             A:80 X:00 Y:68 P:A5 SP:F9 CYC:105
F8B9  90 01     BCC                             A:80 X:00 Y:68 P:A5 SP:F9 CYC:111
F8BB  60        RTS                             A:80 X:00 Y:68 P:A5 SP:F9 CYC:117
D106  C8        INY                             A:80 X:00 Y:68 P:A5 SP:FB CYC:135
D107  48        PHA                             A:80 X:00 Y:69 P:25 SP:FB CYC:141
D108  A9 80     LDA                             A:80 X:00 Y:69 P:25 SP:FA CYC:150
D10A  8D 00 02  STA                             A:80 X:00 Y:69 P:A5 SP:FA CYC:156
D10D  68        PLA                             A:80 X:00 Y:69 P:A5 SP:FA CYC:168
D10E  C1 80     CMP                             A:80 X:00 Y:69 P:A5 SP:FB CYC:180
D110  20 BF F8  JSR                             A:80 X:00 Y:69 P:27 SP:FB CYC:198
F8BF  D0 05     BNE                             A:80 X:00 Y:69 P:27 SP:F9 CYC:216
F8C1  30 03     BMI                             A:80 X:00 Y:69 P:27 SP:F9 CYC:222
F8C3  90 01     BCC                             A:80 X:00 Y:69 P:27 SP:F9 CYC:228
F8C5  60        RTS                             A:80 X:00 Y:69 P:27 SP:F9 CYC:234
D113  C8        INY                             A:80 X:00 Y:69 P:27 SP:FB CYC:252
D114  48        PHA                             A:80 X:00 Y:6A P:25 SP:FB CYC:258
D115  A9 81     LDA                             A:80 X:00 Y:6A P:25 SP:FA CYC:267
D117  8D 00 02  STA                             A:81 X:00 Y:6A P:A5 SP:FA CYC:273
D11A  68        PLA                             A:81 X:00 Y:6A P:A5 SP:FA CYC:285
D11B  C1 80     CMP                             A:80 X:00 Y:6A P:A5 SP:FB CYC:297
D11D  20 C9 F8  JSR                             A:80 X:00 Y:6A P:A4 SP:FB CYC:315
F8C9  B0 05     BCS                             A:80 X:00 Y:6A P:A4 SP:F9 CYC:333
F8CB  F0 03     BEQ                             A:80 X:00 Y:6A P:A4 SP:F9 CYC:339
F8CD  10 01     BPL                             A:80 X:00 Y:6A P:A4 SP:F9 CYC:  4
F8CF  60        RTS                             A:80 X:00 Y:6A P:A4 SP:F9 CYC: 10
D120  C8        INY                             A:80 X:00 Y:6A P:A4 SP:FB CYC: 28
D121  48        PHA                             A:80 X:00 Y:6B P:24 SP:FB CYC: 34
D122  A9 7F     LDA                             A:80 X:00 Y:6B P:24 SP:FA CYC: 43
D124  8D 00 02  STA                             A:7F X:00 Y:6B P:24 SP:FA CYC: 49
D127  68        PLA                             A:7F X:00 Y:6B P:24 SP:FA CYC: 61
D128  C1 80     CMP                             A:80 X:00 Y:6B P:A4 SP:FB CYC: 73
D12A  20 D3 F8  JSR                             A:80 X:00 Y:6B P:25 SP:FB CYC: 91
F8D3  90 05     BCC                             A:80 X:00 Y:6B P:25 SP:F9 CYC:109
F8D5  F0 03     BEQ                             A:80 X:00 Y:6B P:25 SP:F9 CYC:115
F8D7  30 01     BMI                             A:80 X:00 Y:6B P:25 SP:F9 CYC:121
F8D9  60        RTS                             A:80 X:00 Y:6B P:25 SP:F9 CYC:127
D12D  C8        INY                             A:80 X:00 Y:6B P:25 SP:FB CYC:145
D12E  A9 40     LDA                             A:80 X:00 Y:6C P:25 SP:FB CYC:151
D130  8D 00 02  STA                             A:40 X:00 Y:6C P:25 SP:FB CYC:157
D133  20 31 F9  JSR                             A:40 X:00 Y:6C P:25 SP:FB CYC:169
F931  24 01     BIT                             A:40 X:00 Y:6C P:25 SP:F9 CYC:187
F933  A9 40     LDA                             A:40 X:00 Y:6C P:E5 SP:F9 CYC:196
F935  38        SEC                             A:40 X:00 Y:6C P:65 SP:F9 CYC:202
F936  60        RTS                             A:40 X:00 Y:6C P:65 SP:F9 CYC:208
D136  E1 80     SBC                             A:40 X:00 Y:6C P:65 SP:FB CYC:226
D138  20 37 F9  JSR                             A:00 X:00 Y:6C P:27 SP:FB CYC:244
F937  30 0B     BMI                             A:00 X:00 Y:6C P:27 SP:F9 CYC:262
F939  90 09     BCC                             A:00 X:00 Y:6C P:27 SP:F9 CYC:268
F93B  D0 07     BNE                             A:00 X:00 Y:6C P:27 SP:F9 CYC:274
F93D  70 05     BVS                             A:00 X:00 Y:6C P:27 SP:F9 CYC:280
F93F  C9 00     CMP                             A:00 X:00 Y:6C P:27 SP:F9 CYC:286
F941  D0 01     BNE                             A:00 X:00 Y:6C P:27 SP:F9 CYC:292
F943  60        RTS                             A:00 X:00 Y:6C P:27 SP:F9 CYC:298
D13B  C8        INY                             A:00 X:00 Y:6C P:27 SP:FB CYC:316
D13C  A9 3F     LDA                             A:00 X:00 Y:6D P:25 SP:FB CYC:322
D13E  8D 00 02  STA                             A:3F X:00 Y:6D P:25 SP:FB CYC:328
D141  20 47 F9  JSR                             A:3F X:00 Y:6D P:25 SP:FB CYC:340
F947  B8        CLV                             A:3F X:00 Y:6D P:25 SP:F9 CYC: 17
F948  38        SEC                             A:3F X:00 Y:6D P:25 SP:F9 CYC: 23
F949  A9 40     LDA                             A:3F X:00 Y:6D P:25 SP:F9 CYC: 29
F94B  60        RTS                             A:40 X:00 Y:6D P:25 SP:F9 CYC: 35
D144  E1 80     SBC                             A:40 X:00 Y:6D P:25 SP:FB CYC: 53
D146  20 4C F9  JSR                             A:01 X:00 Y:6D P:25 SP:FB CYC: 71
F94C  F0 0B     BEQ                             A:01 X:00 Y:6D P:25 SP:F9 CYC: 89
F94E  30 09     BMI                             A:01 X:00 Y:6D P:25 SP:F9 CYC: 95
F950  90 07     BCC                             A:01 X:00 Y:6D P:25 SP:F9 CYC:101
F952  70 05     BVS                             A:01 X:00 Y:6D P:25 SP:F9 CYC:107
F954  C9 01     CMP                             A:01 X:00 Y:6D P:25 SP:F9 CYC:113
F956  D0 01     BNE                             A:01 X:00 Y:6D P:27 SP:F9 CYC:119
F958  60        RTS                             A:01 X:00 Y:6D P:27 SP:F9 CYC:125
D149  C8        INY                             A:01 X:00 Y:6D P:27 SP:FB CYC:143
D14A  A9 41     LDA                             A:01 X:00 Y:6E P:25 SP:FB CYC:149
D14C  8D 00 02  STA                             A:41 X:00 Y:6E P:25 SP:FB CYC:155
D14F  20 5C F9  JSR                             A:41 X:00 Y:6E P:25 SP:FB CYC:167
F95C  A9 40     LDA                             A:41 X:00 Y:6E P:25 SP:F9 CYC:185
F95E  38        SEC                             A:40 X:00 Y:6E P:25 SP:F9 CYC:191
F95F  24 01     BIT                             A:40 X:00 Y:6E P:25 SP:F9 CYC:197
F961  60        RTS                             A:40 X:00 Y:6E P:E5 SP:F9 CYC:206
D152  E1 80     SBC                             A:40 X:00 Y:6E P:E5 SP:FB CYC:224
D154  20 62 F9  JSR                             A:FF X:00 Y:6E P:A4 SP:FB CYC:242
F962  B0 0B     BCS                             A:FF X:00 Y:6E P:A4 SP:F9 CYC:260
F964  F0 09     BEQ                             A:FF X:00 Y:6E P:A4 SP:F9 CYC:266
F966  10 07     BPL                             A:FF X:00 Y:6E P:A4 SP:F9 CYC:272
F968  70 05     BVS                             A:FF X:00 Y:6E P:A4 SP:F9 CYC:278
F96A  C9 FF     CMP                             A:FF X:00 Y:6E P:A4 SP:F9 CYC:284
F96C  D0 01     BNE                             A:FF X:00 Y:6E P:27 SP:F9 CYC:290
F96E  60        RTS                             A:FF X:00 Y:6E P:27 SP:F9 CYC:296
D157  C8        INY                             A:FF X:00 Y:6E P:27 SP:FB CYC:314
D158  A9 00     LDA                             A:FF X:00 Y:6F P:25 SP:FB CYC:320
D15A  8D 00 02  STA                             A:00 X:00 Y:6F P:27 SP:FB CYC:326
D15D  20 72 F9  JSR                             A:00 X:00 Y:6F P:27 SP:FB CYC:338
F972  18        CLC                             A:00 X:00 Y:6F P:27 SP:F9 CYC: 15
F973  A9 80     LDA                             A:00 X:00 Y:6F P:26 SP:F9 CYC: 21
F975  60        RTS                             A:80 X:00 Y:6F P:A4 SP:F9 CYC: 27
D160  E1 80     SBC                             A:80 X:00 Y:6F P:A4 SP:FB CYC: 45
D162  20 76 F9  JSR                             A:7F X:00 Y:6F P:65 SP:FB CYC: 63
F976  90 05     BCC                             A:7F X:00 Y:6F P:65 SP:F9 CYC: 81
F978  C9 7F     CMP                             A:7F X:00 Y:6F P:65 SP:F9 CYC: 87
F97A  D0 01     BNE                             A:7F X:00 Y:6F P:67 SP:F9 CYC: 93
F97C  60        RTS                             A:7F X:00 Y:6F P:67 SP:F9 CYC: 99
D165  C8        INY                             A:7F X:00 Y:6F P:67 SP:FB CYC:117
D166  A9 7F     LDA                             A:7F X:00 Y:70 P:65 SP:FB CYC:123
D168  8D 00 02  STA                             A:7F X:00 Y:70 P:65 SP:FB CYC:129
D16B  20 80 F9  JSR                             A:7F X:00 Y:70 P:65 SP:FB CYC:141
F980  38        SEC                             A:7F X:00 Y:70 P:65 SP:F9 CYC:159
F981  A9 81     LDA                             A:7F X:00 Y:70 P:65 SP:F9 CYC:165
F983  60        RTS                             A:81 X:00 Y:70 P:E5 SP:F9 CYC:171
D16E  E1 80     SBC                             A:81 X:00 Y:70 P:E5 SP:FB CYC:189
D170  20 84 F9  JSR                             A:02 X:00 Y:70 P:65 SP:FB CYC:207
F984  50 07     BVC                             A:02 X:00 Y:70 P:65 SP:F9 CYC:225
F986  90 05     BCC                             A:02 X:00 Y:70 P:65 SP:F9 CYC:231
F988  C9 02     CMP                             A:02 X:00 Y:70 P:65 SP:F9 CYC:237
F98A  D0 01     BNE                             A:02 X:00 Y:70 P:67 SP:F9 CYC:243
F98C  60        RTS                             A:02 X:00 Y:70 P:67 SP:F9 CYC:249
D173  60        RTS                             A:02 X:00 Y:70 P:67 SP:FB CYC:267
C612  20 74 D1  JSR                             A:02 X:00 Y:70 P:67 SP:FD CYC:285
D174  A9 55     LDA                             A:02 X:00 Y:70 P:67 SP:FB CYC:303
D176  85 78     STA                             A:55 X:00 Y:70 P:65 SP:FB CYC:309
D178  A9 FF     LDA                             A:55 X:00 Y:70 P:65 SP:FB CYC:318
D17A  85 01     STA                             A:FF X:00 Y:70 P:E5 SP:FB CYC:324
D17C  24 01     BIT                             A:FF X:00 Y:70 P:E5 SP:FB CYC:333
D17E  A0 11     LDY                             A:FF X:00 Y:70 P:E5 SP:FB CYC:  1
D180  A2 23     LDX                             A:FF X:00 Y:11 P:65 SP:FB CYC:  7
D182  A9 00     LDA                             A:FF X:23 Y:11 P:65 SP:FB CYC: 13
D184  A5 78     LDA                             A:00 X:23 Y:11 P:67 SP:FB CYC: 19
D186  F0 10     BEQ                             A:55 X:23 Y:11 P:65 SP:FB CYC: 28
D188  30 0E     BMI                             A:55 X:23 Y:11 P:65 SP:FB CYC: 34
D18A  C9 55     CMP                             A:55 X:23 Y:11 P:65 SP:FB CYC: 40
D18C  D0 0A     BNE                             A:55 X:23 Y:11 P:67 SP:FB CYC: 46
D18E  C0 11     CPY                             A:55 X:23 Y:11 P:67 SP:FB CYC: 52
D190  D0 06     BNE                             A:55 X:23 Y:11 P:67 SP:FB CYC: 58
D192  E0 23     CPX                             A:55 X:23 Y:11 P:67 SP:FB CYC: 64
D194  50 02     BVC                             A:55 X:23 Y:11 P:67 SP:FB CYC: 70
D196  F0 04     BEQ                             A:55 X:23 Y:11 P:67 SP:FB CYC: 76
D19C  A9 46     LDA                             A:55 X:23 Y:11 P:67 SP:FB CYC: 85
D19E  24 01     BIT                             A:46 X:23 Y:11 P:65 SP:FB CYC: 91
D1A0  85 78     STA                             A:46 X:23 Y:11 P:E5 SP:FB CYC:100
D1A2  F0 0A     BEQ                             A:46 X:23 Y:11 P:E5 SP:FB CYC:109
D1A4  10 08     BPL                             A:46 X:23 Y:11 P:E5 SP:FB CYC:115
D1A6  50 06     BVC                             A:46 X:23 Y:11 P:E5 SP:FB CYC:121
D1A8  A5 78     LDA                             A:46 X:23 Y:11 P:E5 SP:FB CYC:127
D1AA  C9 46     CMP                             A:46 X:23 Y:11 P:65 SP:FB CYC:136
D1AC  F0 04     BEQ                             A:46 X:23 Y:11 P:67 SP:FB CYC:142
D1B2  A9 55     LDA                             A:46 X:23 Y:11 P:67 SP:FB CYC:151
D1B4  85 78     STA                             A:55 X:23 Y:11 P:65 SP:FB CYC:157
D1B6  24 01     BIT                             A:55 X:23 Y:11 P:65 SP:FB CYC:166
D1B8  A9 11     LDA                             A:55 X:23 Y:11 P:E5 SP:FB CYC:175
D1BA  A2 23     LDX                             A:11 X:23 Y:11 P:65 SP:FB CYC:181
D1BC  A0 00     LDY                             A:11 X:23 Y:11 P:65 SP:FB CYC:187
D1BE  A4 78     LDY                             A:11 X:23 Y:00 P:67 SP:FB CYC:193
D1C0  F0 10     BEQ                             A:11 X:23 Y:55 P:65 SP:FB CYC:202
D1C2  30 0E     BMI                             A:11 X:23 Y:55 P:65 SP:FB CYC:208
D1C4  C0 55     CPY                             A:11 X:23 Y:55 P:65 SP:FB CYC:214
D1C6  D0 0A     BNE                             A:11 X:23 Y:55 P:67 SP:FB CYC:220
D1C8  C9 11     CMP                             A:11 X:23 Y:55 P:67 SP:FB CYC:226
D1CA  D0 06     BNE                             A:11 X:23 Y:55 P:67 SP:FB CYC:232
D1CC  E0 23     CPX                             A:11 X:23 Y:55 P:67 SP:FB CYC:238
D1CE  50 02     BVC                             A:11 X:23 Y:55 P:67 SP:FB CYC:244
D1D0  F0 04     BEQ                             A:11 X:23 Y:55 P:67 SP:FB CYC:250
D1D6  A0 46     LDY                             A:11 X:23 Y:55 P:67 SP:FB CYC:259
D1D8  24 01     BIT                             A:11 X:23 Y:46 P:65 SP:FB CYC:265
D1DA  84 78     STY                             A:11 X:23 Y:46 P:E5 SP:FB CYC:274
D1DC  F0 0A     BEQ                             A:11 X:23 Y:46 P:E5 SP:FB CYC:283
D1DE  10 08     BPL                             A:11 X:23 Y:46 P:E5 SP:FB CYC:289
D1E0  50 06     BVC                             A:11 X:23 Y:46 P:E5 SP:FB CYC:295
D1E2  A4 78     LDY                             A:11 X:23 Y:46 P:E5 SP:FB CYC:301
D1E4  C0 46     CPY                             A:11 X:23 Y:46 P:65 SP:FB CYC:310
D1E6  F0 04     BEQ                             A:11 X:23 Y:46 P:67 SP:FB CYC:316
D1EC  24 01     BIT                             A:11 X:23 Y:46 P:67 SP:FB CYC:325
D1EE  A9 55     LDA                             A:11 X:23 Y:46 P:E5 SP:FB CYC:334
D1F0  85 78     STA                             A:55 X:23 Y:46 P:65 SP:FB CYC:340
D1F2  A0 11     LDY                             A:55 X:23 Y:46 P:65 SP:FB CYC:  8
D1F4  A9 23     LDA                             A:55 X:23 Y:11 P:65 SP:FB CYC: 14
D1F6  A2 00     LDX                             A:23 X:23 Y:11 P:65 SP:FB CYC: 20
D1F8  A6 78     LDX                             A:23 X:00 Y:11 P:67 SP:FB CYC: 26
D1FA  F0 10     BEQ                             A:23 X:55 Y:11 P:65 SP:FB CYC: 35
D1FC  30 0E     BMI                             A:23 X:55 Y:11 P:65 SP:FB CYC: 41
D1FE  E0 55     CPX                             A:23 X:55 Y:11 P:65 SP:FB CYC: 47
D200  D0 0A     BNE                             A:23 X:55 Y:11 P:67 SP:FB CYC: 53
D202  C0 11     CPY                             A:23 X:55 Y:11 P:67 SP:FB CYC: 59
D204  D0 06     BNE                             A:23 X:55 Y:11 P:67 SP:FB CYC: 65
D206  C9 23     CMP                             A:23 X:55 Y:11 P:67 SP:FB CYC: 71
D208  50 02     BVC                             A:23 X:55 Y:11 P:67 SP:FB CYC: 77
D20A  F0 04     BEQ                             A:23 X:55 Y:11 P:67 SP:FB CYC: 83
D210  A2 46     LDX                             A:23 X:55 Y:11 P:67 SP:FB CYC: 92
D212  24 01     BIT                             A:23 X:46 Y:11 P:65 SP:FB CYC: 98
D214  86 78     STX                             A:23 X:46 Y:11 P:E5 SP:FB CYC:107
D216  F0 0A     BEQ                             A:23 X:46 Y:11 P:E5 SP:FB CYC:116
D218  10 08     BPL                             A:23 X:46 Y:11 P:E5 SP:FB CYC:122
D21A  50 06     BVC                             A:23 X:46 Y:11 P:E5 SP:FB CYC:128
D21C  A6 78     LDX                             A:23 X:46 Y:11 P:E5 SP:FB CYC:134
D21E  E0 46     CPX                             A:23 X:46 Y:11 P:65 SP:FB CYC:143
D220  F0 04     BEQ                             A:23 X:46 Y:11 P:67 SP:FB CYC:149
D226  A9 C0     LDA                             A:23 X:46 Y:11 P:67 SP:FB CYC:158
D228  85 78     STA                             A:C0 X:46 Y:11 P:E5 SP:FB CYC:164
D22A  A2 33     LDX                             A:C0 X:46 Y:11 P:E5 SP:FB CYC:173
D22C  A0 88     LDY                             A:C0 X:33 Y:11 P:65 SP:FB CYC:179
D22E  A9 05     LDA                             A:C0 X:33 Y:88 P:E5 SP:FB CYC:185
D230  24 78     BIT                             A:05 X:33 Y:88 P:65 SP:FB CYC:191
D232  10 10     BPL                             A:05 X:33 Y:88 P:E7 SP:FB CYC:200
D234  50 0E     BVC                             A:05 X:33 Y:88 P:E7 SP:FB CYC:206
D236  D0 0C     BNE                             A:05 X:33 Y:88 P:E7 SP:FB CYC:212
D238  C9 05     CMP                             A:05 X:33 Y:88 P:E7 SP:FB CYC:218
D23A  D0 08     BNE                             A:05 X:33 Y:88 P:67 SP:FB CYC:224
D23C  E0 33     CPX                             A:05 X:33 Y:88 P:67 SP:FB CYC:230
D23E  D0 04     BNE                             A:05 X:33 Y:88 P:67 SP:FB CYC:236
D240  C0 88     CPY                             A:05 X:33 Y:88 P:67 SP:FB CYC:242
D242  F0 04     BEQ                             A:05 X:33 Y:88 P:67 SP:FB CYC:248
D248  A9 03     LDA                             A:05 X:33 Y:88 P:67 SP:FB CYC:257
D24A  85 78     STA                             A:03 X:33 Y:88 P:65 SP:FB CYC:263
D24C  A9 01     LDA                             A:03 X:33 Y:88 P:65 SP:FB CYC:272
D24E  24 78     BIT                             A:01 X:33 Y:88 P:65 SP:FB CYC:278
D250  30 08     BMI                             A:01 X:33 Y:88 P:25 SP:FB CYC:287
D252  70 06     BVS                             A:01 X:33 Y:88 P:25 SP:FB CYC:293
D254  F0 04     BEQ                             A:01 X:33 Y:88 P:25 SP:FB CYC:299
D256  C9 01     CMP                             A:01 X:33 Y:88 P:25 SP:FB CYC:305
D258  F0 04     BEQ                             A:01 X:33 Y:88 P:27 SP:FB CYC:311
D25E  A0 7E     LDY                             A:01 X:33 Y:88 P:27 SP:FB CYC:320
D260  A9 AA     LDA                             A:01 X:33 Y:7E P:25 SP:FB CYC:326
D262  85 78     STA                             A:AA X:33 Y:7E P:A5 SP:FB CYC:332
D264  20 B6 F7  JSR                             A:AA X:33 Y:7E P:A5 SP:FB CYC:  0
F7B6  18        CLC                             A:AA X:33 Y:7E P:A5 SP:F9 CYC: 18
F7B7  A9 FF     LDA                             A:AA X:33 Y:7E P:A4 SP:F9 CYC: 24
F7B9  85 01     STA                             A:FF X:33 Y:7E P:A4 SP:F9 CYC: 30
F7BB  24 01     BIT                             A:FF X:33 Y:7E P:A4 SP:F9 CYC: 39
F7BD  A9 55     LDA                             A:FF X:33 Y:7E P:E4 SP:F9 CYC: 48
F7BF  60        RTS                             A:55 X:33 Y:7E P:64 SP:F9 CYC: 54
D267  05 78     ORA                             A:55 X:33 Y:7E P:64 SP:FB CYC: 72
D269  20 C0 F7  JSR                             A:FF X:33 Y:7E P:E4 SP:FB CYC: 81
F7C0  B0 09     BCS                             A:FF X:33 Y:7E P:E4 SP:F9 CYC: 99
F7C2  10 07     BPL                             A:FF X:33 Y:7E P:E4 SP:F9 CYC:105
F7C4  C9 FF     CMP                             A:FF X:33 Y:7E P:E4 SP:F9 CYC:111
F7C6  D0 03     BNE                             A:FF X:33 Y:7E P:67 SP:F9 CYC:117
F7C8  50 01     BVC                             A:FF X:33 Y:7E P:67 SP:F9 CYC:123
F7CA  60        RTS                             A:FF X:33 Y:7E P:67 SP:F9 CYC:129
D26C  C8        INY                             A:FF X:33 Y:7E P:67 SP:FB CYC:147
D26D  A9 00     LDA                             A:FF X:33 Y:7F P:65 SP:FB CYC:153
D26F  85 78     STA                             A:00 X:33 Y:7F P:67 SP:FB CYC:159
D271  20 CE F7  JSR                             A:00 X:33 Y:7F P:67 SP:FB CYC:168
F7CE  38        SEC                             A:00 X:33 Y:7F P:67 SP:F9 CYC:186
F7CF  B8        CLV                             A:00 X:33 Y:7F P:67 SP:F9 CYC:192
F7D0  A9 00     LDA                             A:00 X:33 Y:7F P:27 SP:F9 CYC:198
F7D2  60        RTS                             A:00 X:33 Y:7F P:27 SP:F9 CYC:204
D274  05 78     ORA                             A:00 X:33 Y:7F P:27 SP:FB CYC:222
D276  20 D3 F7  JSR                             A:00 X:33 Y:7F P:27 SP:FB CYC:231
F7D3  D0 07     BNE                             A:00 X:33 Y:7F P:27 SP:F9 CYC:249
F7D5  70 05     BVS                             A:00 X:33 Y:7F P:27 SP:F9 CYC:255
F7D7  90 03     BCC                             A:00 X:33 Y:7F P:27 SP:F9 CYC:261
F7D9  30 01     BMI                             A:00 X:33 Y:7F P:27 SP:F9 CYC:267
F7DB  60        RTS                             A:00 X:33 Y:7F P:27 SP:F9 CYC:273
D279  C8        INY                             A:00 X:33 Y:7F P:27 SP:FB CYC:291
D27A  A9 AA     LDA                             A:00 X:33 Y:80 P:A5 SP:FB CYC:297
D27C  85 78     STA                             A:AA X:33 Y:80 P:A5 SP:FB CYC:303
D27E  20 DF F7  JSR                             A:AA X:33 Y:80 P:A5 SP:FB CYC:312
F7DF  18        CLC                             A:AA X:33 Y:80 P:A5 SP:F9 CYC:330
F7E0  24 01     BIT                             A:AA X:33 Y:80 P:A4 SP:F9 CYC:336
F7E2  A9 55     LDA                             A:AA X:33 Y:80 P:E4 SP:F9 CYC:  4
F7E4  60        RTS                             A:55 X:33 Y:80 P:64 SP:F9 CYC: 10
D281  25 78     AND                             A:55 X:33 Y:80 P:64 SP:FB CYC: 28
D283  20 E5 F7  JSR                             A:00 X:33 Y:80 P:66 SP:FB CYC: 37
F7E5  D0 07     BNE                             A:00 X:33 Y:80 P:66 SP:F9 CYC: 55
F7E7  50 05     BVC                             A:00 X:33 Y:80 P:66 SP:F9 CYC: 61
F7E9  B0 03     BCS                             A:00 X:33 Y:80 P:66 SP:F9 CYC: 67
F7EB  30 01     BMI                             A:00 X:33 Y:80 P:66 SP:F9 CYC: 73
F7ED  60        RTS                             A:00 X:33 Y:80 P:66 SP:F9 CYC: 79
D286  C8        INY                             A:00 X:33 Y:80 P:66 SP:FB CYC: 97
D287  A9 EF     LDA                             A:00 X:33 Y:81 P:E4 SP:FB CYC:103
D289  85 78     STA                             A:EF X:33 Y:81 P:E4 SP:FB CYC:109
D28B  20 F1 F7  JSR                             A:EF X:33 Y:81 P:E4 SP:FB CYC:118
F7F1  38        SEC                             A:EF X:33 Y:81 P:E4 SP:F9 CYC:136
F7F2  B8        CLV                             A:EF X:33 Y:81 P:E5 SP:F9 CYC:142
F7F3  A9 F8     LDA                             A:EF X:33 Y:81 P:A5 SP:F9 CYC:148
F7F5  60        RTS                             A:F8 X:33 Y:81 P:A5 SP:F9 CYC:154
D28E  25 78     AND                             A:F8 X:33 Y:81 P:A5 SP:FB CYC:172
D290  20 F6 F7  JSR                             A:E8 X:33 Y:81 P:A5 SP:FB CYC:181
F7F6  90 09     BCC                             A:E8 X:33 Y:81 P:A5 SP:F9 CYC:199
F7F8  10 07     BPL                             A:E8 X:33 Y:81 P:A5 SP:F9 CYC:205
F7FA  C9 E8     CMP                             A:E8 X:33 Y:81 P:A5 SP:F9 CYC:211
F7FC  D0 03     BNE                             A:E8 X:33 Y:81 P:27 SP:F9 CYC:217
F7FE  70 01     BVS                             A:E8 X:33 Y:81 P:27 SP:F9 CYC:223
F800  60        RTS                             A:E8 X:33 Y:81 P:27 SP:F9 CYC:229
D293  C8        INY                             A:E8 X:33 Y:81 P:27 SP:FB CYC:247
D294  A9 AA     LDA                             A:E8 X:33 Y:82 P:A5 SP:FB CYC:253
D296  85 78     STA                             A:AA X:33 Y:82 P:A5 SP:FB CYC:259
D298  20 04 F8  JSR                             A:AA X:33 Y:82 P:A5 SP:FB CYC:268
F804  18        CLC                             A:AA X:33 Y:82 P:A5 SP:F9 CYC:286
F805  24 01     BIT                             A:AA X:33 Y:82 P:A4 SP:F9 CYC:292
F807  A9 5F     LDA                             A:AA X:33 Y:82 P:E4 SP:F9 CYC:301
F809  60        RTS                             A:5F X:33 Y:82 P:64 SP:F9 CYC:307
D29B  45 78     EOR                             A:5F X:33 Y:82 P:64 SP:FB CYC:325
D29D  20 0A F8  JSR                             A:F5 X:33 Y:82 P:E4 SP:FB CYC:334
F80A  B0 09     BCS                             A:F5 X:33 Y:82 P:E4 SP:F9 CYC: 11
F80C  10 07     BPL                             A:F5 X:33 Y:82 P:E4 SP:F9 CYC: 17
F80E  C9 F5     CMP                             A:F5 X:33 Y:82 P:E4 SP:F9 CYC: 23
F810  D0 03     BNE                             A:F5 X:33 Y:82 P:67 SP:F9 CYC: 29
F812  50 01     BVC                             A:F5 X:33 Y:82 P:67 SP:F9 CYC: 35
F814  60        RTS                             A:F5 X:33 Y:82 P:67 SP:F9 CYC: 41
D2A0  C8        INY                             A:F5 X:33 Y:82 P:67 SP:FB CYC: 59
D2A1  A9 70     LDA                             A:F5 X:33 Y:83 P:E5 SP:FB CYC: 65
D2A3  85 78     STA                             A:70 X:33 Y:83 P:65 SP:FB CYC: 71
D2A5  20 18 F8  JSR                             A:70 X:33 Y:83 P:65 SP:FB CYC: 80
F818  38        SEC                             A:70 X:33 Y:83 P:65 SP:F9 CYC: 98
F819  B8        CLV                             A:70 X:33 Y:83 P:65 SP:F9 CYC:104
F81A  A9 70     LDA                             A:70 X:33 Y:83 P:25 SP:F9 CYC:110
F81C  60        RTS                             A:70 X:33 Y:83 P:25 SP:F9 CYC:116
D2A8  45 78     EOR                             A:70 X:33 Y:83 P:25 SP:FB CYC:134
D2AA  20 1D F8  JSR                             A:00 X:33 Y:83 P:27 SP:FB CYC:143
F81D  D0 07     BNE                             A:00 X:33 Y:83 P:27 SP:F9 CYC:161
F81F  70 05     BVS                             A:00 X:33 Y:83 P:27 SP:F9 CYC:167
F821  90 03     BCC                             A:00 X:33 Y:83 P:27 SP:F9 CYC:173
F823  30 01     BMI                             A:00 X:33 Y:83 P:27 SP:F9 CYC:179
F825  60        RTS                             A:00 X:33 Y:83 P:27 SP:F9 CYC:185
D2AD  C8        INY                             A:00 X:33 Y:83 P:27 SP:FB CYC:203
D2AE  A9 69     LDA                             A:00 X:33 Y:84 P:A5 SP:FB CYC:209
D2B0  85 78     STA                             A:69 X:33 Y:84 P:25 SP:FB CYC:215
D2B2  20 29 F8  JSR                             A:69 X:33 Y:84 P:25 SP:FB CYC:224
F829  18        CLC                             A:69 X:33 Y:84 P:25 SP:F9 CYC:242
F82A  24 01     BIT                             A:69 X:33 Y:84 P:24 SP:F9 CYC:248
F82C  A9 00     LDA                             A:69 X:33 Y:84 P:E4 SP:F9 CYC:257
F82E  60        RTS                             A:00 X:33 Y:84 P:66 SP:F9 CYC:263
D2B5  65 78     ADC                             A:00 X:33 Y:84 P:66 SP:FB CYC:281
D2B7  20 2F F8  JSR                             A:69 X:33 Y:84 P:24 SP:FB CYC:290
F82F  30 09     BMI                             A:69 X:33 Y:84 P:24 SP:F9 CYC:308
F831  B0 07     BCS                             A:69 X:33 Y:84 P:24 SP:F9 CYC:314
F833  C9 69     CMP                             A:69 X:33 Y:84 P:24 SP:F9 CYC:320
F835  D0 03     BNE                             A:69 X:33 Y:84 P:27 SP:F9 CYC:326
F837  70 01     BVS                             A:69 X:33 Y:84 P:27 SP:F9 CYC:332
F839  60        RTS                             A:69 X:33 Y:84 P:27 SP:F9 CYC:338
D2BA  C8        INY                             A:69 X:33 Y:84 P:27 SP:FB CYC: 15
D2BB  20 3D F8  JSR                             A:69 X:33 Y:85 P:A5 SP:FB CYC: 21
F83D  38        SEC                             A:69 X:33 Y:85 P:A5 SP:F9 CYC: 39
F83E  24 01     BIT                             A:69 X:33 Y:85 P:A5 SP:F9 CYC: 45
F840  A9 00     LDA                             A:69 X:33 Y:85 P:E5 SP:F9 CYC: 54
F842  60        RTS                             A:00 X:33 Y:85 P:67 SP:F9 CYC: 60
D2BE  65 78     ADC                             A:00 X:33 Y:85 P:67 SP:FB CYC: 78
D2C0  20 43 F8  JSR                             A:6A X:33 Y:85 P:24 SP:FB CYC: 87
F843  30 09     BMI                             A:6A X:33 Y:85 P:24 SP:F9 CYC:105
F845  B0 07     BCS                             A:6A X:33 Y:85 P:24 SP:F9 CYC:111
F847  C9 6A     CMP                             A:6A X:33 Y:85 P:24 SP:F9 CYC:117
F849  D0 03     BNE                             A:6A X:33 Y:85 P:27 SP:F9 CYC:123
F84B  70 01     BVS                             A:6A X:33 Y:85 P:27 SP:F9 CYC:129
F84D  60        RTS                             A:6A X:33 Y:85 P:27 SP:F9 CYC:135
D2C3  C8        INY                             A:6A X:33 Y:85 P:27 SP:FB CYC:153
D2C4  A9 7F     LDA                             A:6A X:33 Y:86 P:A5 SP:FB CYC:159
D2C6  85 78     STA                             A:7F X:33 Y:86 P:25 SP:FB CYC:165
D2C8  20 51 F8  JSR                             A:7F X:33 Y:86 P:25 SP:FB CYC:174
F851  38        SEC                             A:7F X:33 Y:86 P:25 SP:F9 CYC:192
F852  B8        CLV                             A:7F X:33 Y:86 P:25 SP:F9 CYC:198
F853  A9 7F     LDA                             A:7F X:33 Y:86 P:25 SP:F9 CYC:204
F855  60        RTS                             A:7F X:33 Y:86 P:25 SP:F9 CYC:210
D2CB  65 78     ADC                             A:7F X:33 Y:86 P:25 SP:FB CYC:228
D2CD  20 56 F8  JSR                             A:FF X:33 Y:86 P:E4 SP:FB CYC:237
F856  10 09     BPL                             A:FF X:33 Y:86 P:E4 SP:F9 CYC:255
F858  B0 07     BCS                             A:FF X:33 Y:86 P:E4 SP:F9 CYC:261
F85A  C9 FF     CMP                             A:FF X:33 Y:86 P:E4 SP:F9 CYC:267
F85C  D0 03     BNE                             A:FF X:33 Y:86 P:67 SP:F9 CYC:273
F85E  50 01     BVC                             A:FF X:33 Y:86 P:67 SP:F9 CYC:279
F860  60        RTS                             A:FF X:33 Y:86 P:67 SP:F9 CYC:285
D2D0  C8        INY                             A:FF X:33 Y:86 P:67 SP:FB CYC:303
D2D1  A9 80     LDA                             A:FF X:33 Y:87 P:E5 SP:FB CYC:309
D2D3  85 78     STA                             A:80 X:33 Y:87 P:E5 SP:FB CYC:315
D2D5  20 64 F8  JSR                             A:80 X:33 Y:87 P:E5 SP:FB CYC:324
F864  18        CLC                             A:80 X:33 Y:87 P:E5 SP:F9 CYC:  1
F865  24 01     BIT                             A:80 X:33 Y:87 P:E4 SP:F9 CYC:  7
F867  A9 7F     LDA                             A:80 X:33 Y:87 P:E4 SP:F9 CYC: 16
F869  60        RTS                             A:7F X:33 Y:87 P:64 SP:F9 CYC: 22
D2D8  65 78     ADC                             A:7F X:33 Y:87 P:64 SP:FB CYC: 40
D2DA  20 6A F8  JSR                             A:FF X:33 Y:87 P:A4 SP:FB CYC: 49
F86A  10 09     BPL                             A:FF X:33 Y:87 P:A4 SP:F9 CYC: 67
F86C  B0 07     BCS                             A:FF X:33 Y:87 P:A4 SP:F9 CYC: 73
F86E  C9 FF     CMP                             A:FF X:33 Y:87 P:A4 SP:F9 CYC: 79
F870  D0 03     BNE                             A:FF X:33 Y:87 P:27 SP:F9 CYC: 85
F872  70 01     BVS                             A:FF X:33 Y:87 P:27 SP:F9 CYC: 91
F874  60        RTS                             A:FF X:33 Y:87 P:27 SP:F9 CYC: 97
D2DD  C8        INY                             A:FF X:33 Y:87 P:27 SP:FB CYC:115
D2DE  20 78 F8  JSR                             A:FF X:33 Y:88 P:A5 SP:FB CYC:121
F878  38        SEC                             A:FF X:33 Y:88 P:A5 SP:F9 CYC:139
F879  B8        CLV                             A:FF X:33 Y:88 P:A5 SP:F9 CYC:145
F87A  A9 7F     LDA                             A:FF X:33 Y:88 P:A5 SP:F9 CYC:151
F87C  60        RTS                             A:7F X:33 Y:88 P:25 SP:F9 CYC:157
D2E1  65 78     ADC                             A:7F X:33 Y:88 P:25 SP:FB CYC:175
D2E3  20 7D F8  JSR                             A:00 X:33 Y:88 P:27 SP:FB CYC:184
F87D  D0 07     BNE                             A:00 X:33 Y:88 P:27 SP:F9 CYC:202
F87F  30 05     BMI                             A:00 X:33 Y:88 P:27 SP:F9 CYC:208
F881  70 03     BVS                             A:00 X:33 Y:88 P:27 SP:F9 CYC:214
F883  90 01     BCC                             A:00 X:33 Y:88 P:27 SP:F9 CYC:220
F885  60        RTS                             A:00 X:33 Y:88 P:27 SP:F9 CYC:226
D2E6  C8        INY                             A:00 X:33 Y:88 P:27 SP:FB CYC:244
D2E7  A9 40     LDA                             A:00 X:33 Y:89 P:A5 SP:FB CYC:250
D2E9  85 78     STA                             A:40 X:33 Y:89 P:25 SP:FB CYC:256
D2EB  20 89 F8  JSR                             A:40 X:33 Y:89 P:25 SP:FB CYC:265
F889  24 01     BIT                             A:40 X:33 Y:89 P:25 SP:F9 CYC:283
F88B  A9 40     LDA                             A:40 X:33 Y:89 P:E5 SP:F9 CYC:292
F88D  60        RTS                             A:40 X:33 Y:89 P:65 SP:F9 CYC:298
D2EE  C5 78     CMP                             A:40 X:33 Y:89 P:65 SP:FB CYC:316
D2F0  20 8E F8  JSR                             A:40 X:33 Y:89 P:67 SP:FB CYC:325
F88E  30 07     BMI                             A:40 X:33 Y:89 P:67 SP:F9 CYC:  2
F890  90 05     BCC                             A:40 X:33 Y:89 P:67 SP:F9 CYC:  8
F892  D0 03     BNE                             A:40 X:33 Y:89 P:67 SP:F9 CYC: 14
F894  50 01     BVC                             A:40 X:33 Y:89 P:67 SP:F9 CYC: 20
F896  60        RTS                             A:40 X:33 Y:89 P:67 SP:F9 CYC: 26
D2F3  C8        INY                             A:40 X:33 Y:89 P:67 SP:FB CYC: 44
D2F4  48        PHA                             A:40 X:33 Y:8A P:E5 SP:FB CYC: 50
D2F5  A9 3F     LDA                             A:40 X:33 Y:8A P:E5 SP:FA CYC: 59
D2F7  85 78     STA                             A:3F X:33 Y:8A P:65 SP:FA CYC: 65
D2F9  68        PLA                             A:3F X:33 Y:8A P:65 SP:FA CYC: 74
D2FA  20 9A F8  JSR                             A:40 X:33 Y:8A P:65 SP:FB CYC: 86
F89A  B8        CLV                             A:40 X:33 Y:8A P:65 SP:F9 CYC:104
F89B  60        RTS                             A:40 X:33 Y:8A P:25 SP:F9 CYC:110
D2FD  C5 78     CMP                             A:40 X:33 Y:8A P:25 SP:FB CYC:128
D2FF  20 9C F8  JSR                             A:40 X:33 Y:8A P:25 SP:FB CYC:137
F89C  F0 07     BEQ                             A:40 X:33 Y:8A P:25 SP:F9 CYC:155
F89E  30 05     BMI                             A:40 X:33 Y:8A P:25 SP:F9 CYC:161
F8A0  90 03     BCC                             A:40 X:33 Y:8A P:25 SP:F9 CYC:167
F8A2  70 01     BVS                             A:40 X:33 Y:8A P:25 SP:F9 CYC:173
F8A4  60        RTS                             A:40 X:33 Y:8A P:25 SP:F9 CYC:179
D302  C8        INY                             A:40 X:33 Y:8A P:25 SP:FB CYC:197
D303  48        PHA                             A:40 X:33 Y:8B P:A5 SP:FB CYC:203
D304  A9 41     LDA                             A:40 X:33 Y:8B P:A5 SP:FA CYC:212
D306  85 78     STA                             A:41 X:33 Y:8B P:25 SP:FA CYC:218
D308  68        PLA                             A:41 X:33 Y:8B P:25 SP:FA CYC:227
D309  C5 78     CMP                             A:40 X:33 Y:8B P:25 SP:FB CYC:239
D30B  20 A8 F8  JSR                             A:40 X:33 Y:8B P:A4 SP:FB CYC:248
F8A8  F0 05     BEQ                             A:40 X:33 Y:8B P:A4 SP:F9 CYC:266
F8AA  10 03     BPL                             A:40 X:33 Y:8B P:A4 SP:F9 CYC:272
F8AC  10 01     BPL                             A:40 X:33 Y:8B P:A4 SP:F9 CYC:278
F8AE  60        RTS                             A:40 X:33 Y:8B P:A4 SP:F9 CYC:284
D30E  C8        INY                             A:40 X:33 Y:8B P:A4 SP:FB CYC:302
D30F  48        PHA                             A:40 X:33 Y:8C P:A4 SP:FB CYC:308
D310  A9 00     LDA                             A:40 X:33 Y:8C P:A4 SP:FA CYC:317
D312  85 78     STA                             A:00 X:33 Y:8C P:26 SP:FA CYC:323
D314  68        PLA                             A:00 X:33 Y:8C P:26 SP:FA CYC:332
D315  20 B2 F8  JSR                             A:40 X:33 Y:8C P:24 SP:FB CYC:  3
F8B2  A9 80     LDA                             A:40 X:33 Y:8C P:24 SP:F9 CYC: 21
F8B4  60        RTS                             A:80 X:33 Y:8C P:A4 SP:F9 CYC: 27
D318  C5 78     CMP                             A:80 X:33 Y:8C P:A4 SP:FB CYC: 45
D31A  20 B5 F8  JSR                             A:80 X:33 Y:8C P:A5 SP:FB CYC: 54
F8B5  F0 05     BEQ                             A:80 X:33 Y:8C P:A5 SP:F9 CYC: 72
F8B7  10 03     BPL                             A:80 X:33 Y:8C P:A5 SP:F9 CYC: 78
F8B9  90 01     BCC                             A:80 X:33 Y:8C P:A5 SP:F9 CYC: 84
F8BB  60        RTS                             A:80 X:33 Y:8C P:A5 SP:F9 CYC: 90
D31D  C8        INY                             A:80 X:33 Y:8C P:A5 SP:FB CYC:108
D31E  48        PHA                             A:80 X:33 Y:8D P:A5 SP:FB CYC:114
D31F  A9 80     LDA                             A:80 X:33 Y:8D P:A5 SP:FA CYC:123
D321  85 78     STA                             A:80 X:33 Y:8D P:A5 SP:FA CYC:129
D323  68        PLA                             A:80 X:33 Y:8D P:A5 SP:FA CYC:138
D324  C5 78     CMP                             A:80 X:33 Y:8D P:A5 SP:FB CYC:150
D326  20 BF F8  JSR                             A:80 X:33 Y:8D P:27 SP:FB CYC:159
F8BF  D0 05     BNE                             A:80 X:33 Y:8D P:27 SP:F9 CYC:177
F8C1  30 03     BMI                             A:80 X:33 Y:8D P:27 SP:F9 CYC:183
F8C3  90 01     BCC                             A:80 X:33 Y:8D P:27 SP:F9 CYC:189
F8C5  60        RTS                             A:80 X:33 Y:8D P:27 SP:F9 CYC:195
D329  C8        INY                             A:80 X:33 Y:8D P:27 SP:FB CYC:213
D32A  48        PHA                             A:80 X:33 Y:8E P:A5 SP:FB CYC:219
D32B  A9 81     LDA                             A:80 X:33 Y:8E P:A5 SP:FA CYC:228
D32D  85 78     STA                             A:81 X:33 Y:8E P:A5 SP:FA CYC:234
D32F  68        PLA                             A:81 X:33 Y:8E P:A5 SP:FA CYC:243
D330  C5 78     CMP                             A:80 X:33 Y:8E P:A5 SP:FB CYC:255
D332  20 C9 F8  JSR                             A:80 X:33 Y:8E P:A4 SP:FB CYC:264
F8C9  B0 05     BCS                             A:80 X:33 Y:8E P:A4 SP:F9 CYC:282
F8CB  F0 03     BEQ                             A:80 X:33 Y:8E P:A4 SP:F9 CYC:288
F8CD  10 01     BPL                             A:80 X:33 Y:8E P:A4 SP:F9 CYC:294
F8CF  60        RTS                             A:80 X:33 Y:8E P:A4 SP:F9 CYC:300
D335  C8        INY                             A:80 X:33 Y:8E P:A4 SP:FB CYC:318
D336  48        PHA                             A:80 X:33 Y:8F P:A4 SP:FB CYC:324
D337  A9 7F     LDA                             A:80 X:33 Y:8F P:A4 SP:FA CYC:333
D339  85 78     STA                             A:7F X:33 Y:8F P:24 SP:FA CYC:339
D33B  68        PLA                             A:7F X:33 Y:8F P:24 SP:FA CYC:  7
D33C  C5 78     CMP                             A:80 X:33 Y:8F P:A4 SP:FB CYC: 19
D33E  20 D3 F8  JSR                             A:80 X:33 Y:8F P:25 SP:FB CYC: 28
F8D3  90 05     BCC                             A:80 X:33 Y:8F P:25 SP:F9 CYC: 46
F8D5  F0 03     BEQ                             A:80 X:33 Y:8F P:25 SP:F9 CYC: 52
F8D7  30 01     BMI                             A:80 X:33 Y:8F P:25 SP:F9 CYC: 58
F8D9  60        RTS                             A:80 X:33 Y:8F P:25 SP:F9 CYC: 64
D341  C8        INY                             A:80 X:33 Y:8F P:25 SP:FB CYC: 82
D342  A9 40     LDA                             A:80 X:33 Y:90 P:A5 SP:FB CYC: 88
D344  85 78     STA                             A:40 X:33 Y:90 P:25 SP:FB CYC: 94
D346  20 31 F9  JSR                             A:40 X:33 Y:90 P:25 SP:FB CYC:103
F931  24 01     BIT                             A:40 X:33 Y:90 P:25 SP:F9 CYC:121
F933  A9 40     LDA                             A:40 X:33 Y:90 P:E5 SP:F9 CYC:130
F935  38        SEC                             A:40 X:33 Y:90 P:65 SP:F9 CYC:136
F936  60        RTS                             A:40 X:33 Y:90 P:65 SP:F9 CYC:142
D349  E5 78     SBC                             A:40 X:33 Y:90 P:65 SP:FB CYC:160
D34B  20 37 F9  JSR                             A:00 X:33 Y:90 P:27 SP:FB CYC:169
F937  30 0B     BMI                             A:00 X:33 Y:90 P:27 SP:F9 CYC:187
F939  90 09     BCC                             A:00 X:33 Y:90 P:27 SP:F9 CYC:193
F93B  D0 07     BNE                             A:00 X:33 Y:90 P:27 SP:F9 CYC:199
F93D  70 05     BVS                             A:00 X:33 Y:90 P:27 SP:F9 CYC:205
F93F  C9 00     CMP                             A:00 X:33 Y:90 P:27 SP:F9 CYC:211
F941  D0 01     BNE                             A:00 X:33 Y:90 P:27 SP:F9 CYC:217
F943  60        RTS                             A:00 X:33 Y:90 P:27 SP:F9 CYC:223
D34E  C8        INY                             A:00 X:33 Y:90 P:27 SP:FB CYC:241
D34F  A9 3F     LDA                             A:00 X:33 Y:91 P:A5 SP:FB CYC:247
D351  85 78     STA                             A:3F X:33 Y:91 P:25 SP:FB CYC:253
D353  20 47 F9  JSR                             A:3F X:33 Y:91 P:25 SP:FB CYC:262
F947  B8        CLV                             A:3F X:33 Y:91 P:25 SP:F9 CYC:280
F948  38        SEC                             A:3F X:33 Y:91 P:25 SP:F9 CYC:286
F949  A9 40     LDA                             A:3F X:33 Y:91 P:25 SP:F9 CYC:292
F94B  60        RTS                             A:40 X:33 Y:91 P:25 SP:F9 CYC:298
D356  E5 78     SBC                             A:40 X:33 Y:91 P:25 SP:FB CYC:316
D358  20 4C F9  JSR                             A:01 X:33 Y:91 P:25 SP:FB CYC:325
F94C  F0 0B     BEQ                             A:01 X:33 Y:91 P:25 SP:F9 CYC:  2
F94E  30 09     BMI                             A:01 X:33 Y:91 P:25 SP:F9 CYC:  8
F950  90 07     BCC                             A:01 X:33 Y:91 P:25 SP:F9 CYC: 14
F952  70 05     BVS                             A:01 X:33 Y:91 P:25 SP:F9 CYC: 20
F954  C9 01     CMP                             A:01 X:33 Y:91 P:25 SP:F9 CYC: 26
F956  D0 01     BNE                             A:01 X:33 Y:91 P:27 SP:F9 CYC: 32
F958  60        RTS                             A:01 X:33 Y:91 P:27 SP:F9 CYC: 38
D35B  C8        INY                             A:01 X:33 Y:91 P:27 SP:FB CYC: 56
D35C  A9 41     LDA                             A:01 X:33 Y:92 P:A5 SP:FB CYC: 62
D35E  85 78     STA                             A:41 X:33 Y:92 P:25 SP:FB CYC: 68
D360  20 5C F9  JSR                             A:41 X:33 Y:92 P:25 SP:FB CYC: 77
F95C  A9 40     LDA                             A:41 X:33 Y:92 P:25 SP:F9 CYC: 95
F95E  38        SEC                             A:40 X:33 Y:92 P:25 SP:F9 CYC:101
F95F  24 01     BIT                             A:40 X:33 Y:92 P:25 SP:F9 CYC:107
F961  60        RTS                             A:40 X:33 Y:92 P:E5 SP:F9 CYC:116
D363  E5 78     SBC                             A:40 X:33 Y:92 P:E5 SP:FB CYC:134
D365  20 62 F9  JSR                             A:FF X:33 Y:92 P:A4 SP:FB CYC:143
F962  B0 0B     BCS                             A:FF X:33 Y:92 P:A4 SP:F9 CYC:161
F964  F0 09     BEQ                             A:FF X:33 Y:92 P:A4 SP:F9 CYC:167
F966  10 07     BPL                             A:FF X:33 Y:92 P:A4 SP:F9 CYC:173
F968  70 05     BVS                             A:FF X:33 Y:92 P:A4 SP:F9 CYC:179
F96A  C9 FF     CMP                             A:FF X:33 Y:92 P:A4 SP:F9 CYC:185
F96C  D0 01     BNE                             A:FF X:33 Y:92 P:27 SP:F9 CYC:191
F96E  60        RTS                             A:FF X:33 Y:92 P:27 SP:F9 CYC:197
D368  C8        INY                             A:FF X:33 Y:92 P:27 SP:FB CYC:215
D369  A9 00     LDA                             A:FF X:33 Y:93 P:A5 SP:FB CYC:221
D36B  85 78     STA                             A:00 X:33 Y:93 P:27 SP:FB CYC:227
D36D  20 72 F9  JSR                             A:00 X:33 Y:93 P:27 SP:FB CYC:236
F972  18        CLC                             A:00 X:33 Y:93 P:27 SP:F9 CYC:254
F973  A9 80     LDA                             A:00 X:33 Y:93 P:26 SP:F9 CYC:260
F975  60        RTS                             A:80 X:33 Y:93 P:A4 SP:F9 CYC:266
D370  E5 78     SBC                             A:80 X:33 Y:93 P:A4 SP:FB CYC:284
D372  20 76 F9  JSR                             A:7F X:33 Y:93 P:65 SP:FB CYC:293
F976  90 05     BCC                             A:7F X:33 Y:93 P:65 SP:F9 CYC:311
F978  C9 7F     CMP                             A:7F X:33 Y:93 P:65 SP:F9 CYC:317
F97A  D0 01     BNE                             A:7F X:33 Y:93 P:67 SP:F9 CYC:323
F97C  60        RTS                             A:7F X:33 Y:93 P:67 SP:F9 CYC:329
D375  C8        INY                             A:7F X:33 Y:93 P:67 SP:FB CYC:  6
D376  A9 7F     LDA                             A:7F X:33 Y:94 P:E5 SP:FB CYC: 12
D378  85 78     STA                             A:7F X:33 Y:94 P:65 SP:FB CYC: 18
D37A  20 80 F9  JSR                             A:7F X:33 Y:94 P:65 SP:FB CYC: 27
F980  38        SEC                             A:7F X:33 Y:94 P:65 SP:F9 CYC: 45
F981  A9 81     LDA                             A:7F X:33 Y:94 P:65 SP:F9 CYC: 51
F983  60        RTS                             A:81 X:33 Y:94 P:E5 SP:F9 CYC: 57
D37D  E5 78     SBC                             A:81 X:33 Y:94 P:E5 SP:FB CYC: 75
D37F  20 84 F9  JSR                             A:02 X:33 Y:94 P:65 SP:FB CYC: 84
F984  50 07     BVC                             A:02 X:33 Y:94 P:65 SP:F9 CYC:102
F986  90 05     BCC                             A:02 X:33 Y:94 P:65 SP:F9 CYC:108
F988  C9 02     CMP                             A:02 X:33 Y:94 P:65 SP:F9 CYC:114
F98A  D0 01     BNE                             A:02 X:33 Y:94 P:67 SP:F9 CYC:120
F98C  60        RTS                             A:02 X:33 Y:94 P:67 SP:F9 CYC:126
D382  C8        INY                             A:02 X:33 Y:94 P:67 SP:FB CYC:144
D383  A9 40     LDA                             A:02 X:33 Y:95 P:E5 SP:FB CYC:150
D385  85 78     STA                             A:40 X:33 Y:95 P:65 SP:FB CYC:156
D387  20 89 F8  JSR                             A:40 X:33 Y:95 P:65 SP:FB CYC:165
F889  24 01     BIT                             A:40 X:33 Y:95 P:65 SP:F9 CYC:183
F88B  A9 40     LDA                             A:40 X:33 Y:95 P:E5 SP:F9 CYC:192
F88D  60        RTS                             A:40 X:33 Y:95 P:65 SP:F9 CYC:198
D38A  AA        TAX                             A:40 X:33 Y:95 P:65 SP:FB CYC:216
D38B  E4 78     CPX                             A:40 X:40 Y:95 P:65 SP:FB CYC:222
D38D  20 8E F8  JSR                             A:40 X:40 Y:95 P:67 SP:FB CYC:231
F88E  30 07     BMI                             A:40 X:40 Y:95 P:67 SP:F9 CYC:249
F890  90 05     BCC                             A:40 X:40 Y:95 P:67 SP:F9 CYC:255
F892  D0 03     BNE                             A:40 X:40 Y:95 P:67 SP:F9 CYC:261
F894  50 01     BVC                             A:40 X:40 Y:95 P:67 SP:F9 CYC:267
F896  60        RTS                             A:40 X:40 Y:95 P:67 SP:F9 CYC:273
D390  C8        INY                             A:40 X:40 Y:95 P:67 SP:FB CYC:291
D391  A9 3F     LDA                             A:40 X:40 Y:96 P:E5 SP:FB CYC:297
D393  85 78     STA                             A:3F X:40 Y:96 P:65 SP:FB CYC:303
D395  20 9A F8  JSR                             A:3F X:40 Y:96 P:65 SP:FB CYC:312
F89A  B8        CLV                             A:3F X:40 Y:96 P:65 SP:F9 CYC:330
F89B  60        RTS                             A:3F X:40 Y:96 P:25 SP:F9 CYC:336
D398  E4 78     CPX                             A:3F X:40 Y:96 P:25 SP:FB CYC: 13
D39A  20 9C F8  JSR                             A:3F X:40 Y:96 P:25 SP:FB CYC: 22
F89C  F0 07     BEQ                             A:3F X:40 Y:96 P:25 SP:F9 CYC: 40
F89E  30 05     BMI                             A:3F X:40 Y:96 P:25 SP:F9 CYC: 46
F8A0  90 03     BCC                             A:3F X:40 Y:96 P:25 SP:F9 CYC: 52
F8A2  70 01     BVS                             A:3F X:40 Y:96 P:25 SP:F9 CYC: 58
F8A4  60        RTS                             A:3F X:40 Y:96 P:25 SP:F9 CYC: 64
D39D  C8        INY                             A:3F X:40 Y:96 P:25 SP:FB CYC: 82
D39E  A9 41     LDA                             A:3F X:40 Y:97 P:A5 SP:FB CYC: 88
D3A0  85 78     STA                             A:41 X:40 Y:97 P:25 SP:FB CYC: 94
D3A2  E4 78     CPX                             A:41 X:40 Y:97 P:25 SP:FB CYC:103
D3A4  20 A8 F8  JSR                             A:41 X:40 Y:97 P:A4 SP:FB CYC:112
F8A8  F0 05     BEQ                             A:41 X:40 Y:97 P:A4 SP:F9 CYC:130
F8AA  10 03     BPL                             A:41 X:40 Y:97 P:A4 SP:F9 CYC:136
F8AC  10 01     BPL                             A:41 X:40 Y:97 P:A4 SP:F9 CYC:142
F8AE  60        RTS                             A:41 X:40 Y:97 P:A4 SP:F9 CYC:148
D3A7  C8        INY                             A:41 X:40 Y:97 P:A4 SP:FB CYC:166
D3A8  A9 00     LDA                             A:41 X:40 Y:98 P:A4 SP:FB CYC:172
D3AA  85 78     STA                             A:00 X:40 Y:98 P:26 SP:FB CYC:178
D3AC  20 B2 F8  JSR                             A:00 X:40 Y:98 P:26 SP:FB CYC:187
F8B2  A9 80     LDA                             A:00 X:40 Y:98 P:26 SP:F9 CYC:205
F8B4  60        RTS                             A:80 X:40 Y:98 P:A4 SP:F9 CYC:211
D3AF  AA        TAX                             A:80 X:40 Y:98 P:A4 SP:FB CYC:229
D3B0  E4 78     CPX                             A:80 X:80 Y:98 P:A4 SP:FB CYC:235
D3B2  20 B5 F8  JSR                             A:80 X:80 Y:98 P:A5 SP:FB CYC:244
F8B5  F0 05     BEQ                             A:80 X:80 Y:98 P:A5 SP:F9 CYC:262
F8B7  10 03     BPL                             A:80 X:80 Y:98 P:A5 SP:F9 CYC:268
F8B9  90 01     BCC                             A:80 X:80 Y:98 P:A5 SP:F9 CYC:274
F8BB  60        RTS                             A:80 X:80 Y:98 P:A5 SP:F9 CYC:280
D3B5  C8        INY                             A:80 X:80 Y:98 P:A5 SP:FB CYC:298
D3B6  A9 80     LDA                             A:80 X:80 Y:99 P:A5 SP:FB CYC:304
D3B8  85 78     STA                             A:80 X:80 Y:99 P:A5 SP:FB CYC:310
D3BA  E4 78     CPX                             A:80 X:80 Y:99 P:A5 SP:FB CYC:319
D3BC  20 BF F8  JSR                             A:80 X:80 Y:99 P:27 SP:FB CYC:328
F8BF  D0 05     BNE                             A:80 X:80 Y:99 P:27 SP:F9 CYC:  5
F8C1  30 03     BMI                             A:80 X:80 Y:99 P:27 SP:F9 CYC: 11
F8C3  90 01     BCC                             A:80 X:80 Y:99 P:27 SP:F9 CYC: 17
F8C5  60        RTS                             A:80 X:80 Y:99 P:27 SP:F9 CYC: 23
D3BF  C8        INY                             A:80 X:80 Y:99 P:27 SP:FB CYC: 41
D3C0  A9 81     LDA                             A:80 X:80 Y:9A P:A5 SP:FB CYC: 47
D3C2  85 78     STA                             A:81 X:80 Y:9A P:A5 SP:FB CYC: 53
D3C4  E4 78     CPX                             A:81 X:80 Y:9A P:A5 SP:FB CYC: 62
D3C6  20 C9 F8  JSR                             A:81 X:80 Y:9A P:A4 SP:FB CYC: 71
F8C9  B0 05     BCS                             A:81 X:80 Y:9A P:A4 SP:F9 CYC: 89
F8CB  F0 03     BEQ                             A:81 X:80 Y:9A P:A4 SP:F9 CYC: 95
F8CD  10 01     BPL                             A:81 X:80 Y:9A P:A4 SP:F9 CYC:101
F8CF  60        RTS                             A:81 X:80 Y:9A P:A4 SP:F9 CYC:107
D3C9  C8        INY                             A:81 X:80 Y:9A P:A4 SP:FB CYC:125
D3CA  A9 7F     LDA                             A:81 X:80 Y:9B P:A4 SP:FB CYC:131
D3CC  85 78     STA                             A:7F X:80 Y:9B P:24 SP:FB CYC:137
D3CE  E4 78     CPX                             A:7F X:80 Y:9B P:24 SP:FB CYC:146
D3D0  20 D3 F8  JSR                             A:7F X:80 Y:9B P:25 SP:FB CYC:155
F8D3  90 05     BCC                             A:7F X:80 Y:9B P:25 SP:F9 CYC:173
F8D5  F0 03     BEQ                             A:7F X:80 Y:9B P:25 SP:F9 CYC:179
F8D7  30 01     BMI                             A:7F X:80 Y:9B P:25 SP:F9 CYC:185
F8D9  60        RTS                             A:7F X:80 Y:9B P:25 SP:F9 CYC:191
D3D3  C8        INY                             A:7F X:80 Y:9B P:25 SP:FB CYC:209
D3D4  98        TYA                             A:7F X:80 Y:9C P:A5 SP:FB CYC:215
D3D5  AA        TAX                             A:9C X:80 Y:9C P:A5 SP:FB CYC:221
D3D6  A9 40     LDA                             A:9C X:9C Y:9C P:A5 SP:FB CYC:227
D3D8  85 78     STA                             A:40 X:9C Y:9C P:25 SP:FB CYC:233
D3DA  20 DD F8  JSR                             A:40 X:9C Y:9C P:25 SP:FB CYC:242
F8DD  24 01     BIT                             A:40 X:9C Y:9C P:25 SP:F9 CYC:260
F8DF  A0 40     LDY                             A:40 X:9C Y:9C P:E5 SP:F9 CYC:269
F8E1  60        RTS                             A:40 X:9C Y:40 P:65 SP:F9 CYC:275
D3DD  C4 78     CPY                             A:40 X:9C Y:40 P:65 SP:FB CYC:293
D3DF  20 E2 F8  JSR                             A:40 X:9C Y:40 P:67 SP:FB CYC:302
F8E2  30 07     BMI                             A:40 X:9C Y:40 P:67 SP:F9 CYC:320
F8E4  90 05     BCC                             A:40 X:9C Y:40 P:67 SP:F9 CYC:326
F8E6  D0 03     BNE                             A:40 X:9C Y:40 P:67 SP:F9 CYC:332
F8E8  50 01     BVC                             A:40 X:9C Y:40 P:67 SP:F9 CYC:338
F8EA  60        RTS                             A:40 X:9C Y:40 P:67 SP:F9 CYC:  3
D3E2  E8        INX                             A:40 X:9C Y:40 P:67 SP:FB CYC: 21
D3E3  A9 3F     LDA                             A:40 X:9D Y:40 P:E5 SP:FB CYC: 27
D3E5  85 78     STA                             A:3F X:9D Y:40 P:65 SP:FB CYC: 33
D3E7  20 EE F8  JSR                             A:3F X:9D Y:40 P:65 SP:FB CYC: 42
F8EE  B8        CLV                             A:3F X:9D Y:40 P:65 SP:F9 CYC: 60
F8EF  60        RTS                             A:3F X:9D Y:40 P:25 SP:F9 CYC: 66
D3EA  C4 78     CPY                             A:3F X:9D Y:40 P:25 SP:FB CYC: 84
D3EC  20 F0 F8  JSR                             A:3F X:9D Y:40 P:25 SP:FB CYC: 93
F8F0  F0 07     BEQ                             A:3F X:9D Y:40 P:25 SP:F9 CYC:111
F8F2  30 05     BMI                             A:3F X:9D Y:40 P:25 SP:F9 CYC:117
F8F4  90 03     BCC                             A:3F X:9D Y:40 P:25 SP:F9 CYC:123
F8F6  70 01     BVS                             A:3F X:9D Y:40 P:25 SP:F9 CYC:129
F8F8  60        RTS                             A:3F X:9D Y:40 P:25 SP:F9 CYC:135
D3EF  E8        INX                             A:3F X:9D Y:40 P:25 SP:FB CYC:153
D3F0  A9 41     LDA                             A:3F X:9E Y:40 P:A5 SP:FB CYC:159
D3F2  85 78     STA                             A:41 X:9E Y:40 P:25 SP:FB CYC:165
D3F4  C4 78     CPY                             A:41 X:9E Y:40 P:25 SP:FB CYC:174
D3F6  20 FC F8  JSR                             A:41 X:9E Y:40 P:A4 SP:FB CYC:183
F8FC  F0 05     BEQ                             A:41 X:9E Y:40 P:A4 SP:F9 CYC:201
F8FE  10 03     BPL                             A:41 X:9E Y:40 P:A4 SP:F9 CYC:207
F900  10 01     BPL                             A:41 X:9E Y:40 P:A4 SP:F9 CYC:213
F902  60        RTS                             A:41 X:9E Y:40 P:A4 SP:F9 CYC:219
D3F9  E8        INX                             A:41 X:9E Y:40 P:A4 SP:FB CYC:237
D3FA  A9 00     LDA                             A:41 X:9F Y:40 P:A4 SP:FB CYC:243
D3FC  85 78     STA                             A:00 X:9F Y:40 P:26 SP:FB CYC:249
D3FE  20 06 F9  JSR                             A:00 X:9F Y:40 P:26 SP:FB CYC:258
F906  A0 80     LDY                             A:00 X:9F Y:40 P:26 SP:F9 CYC:276
F908  60        RTS                             A:00 X:9F Y:80 P:A4 SP:F9 CYC:282
D401  C4 78     CPY                             A:00 X:9F Y:80 P:A4 SP:FB CYC:300
D403  20 09 F9  JSR                             A:00 X:9F Y:80 P:A5 SP:FB CYC:309
F909  F0 05     BEQ                             A:00 X:9F Y:80 P:A5 SP:F9 CYC:327
F90B  10 03     BPL                             A:00 X:9F Y:80 P:A5 SP:F9 CYC:333
F90D  90 01     BCC                             A:00 X:9F Y:80 P:A5 SP:F9 CYC:339
F90F  60        RTS                             A:00 X:9F Y:80 P:A5 SP:F9 CYC:  4
D406  E8        INX                             A:00 X:9F Y:80 P:A5 SP:FB CYC: 22
D407  A9 80     LDA                             A:00 X:A0 Y:80 P:A5 SP:FB CYC: 28
D409  85 78     STA                             A:80 X:A0 Y:80 P:A5 SP:FB CYC: 34
D40B  C4 78     CPY                             A:80 X:A0 Y:80 P:A5 SP:FB CYC: 43
D40D  20 13 F9  JSR                             A:80 X:A0 Y:80 P:27 SP:FB CYC: 52
F913  D0 05     BNE                             A:80 X:A0 Y:80 P:27 SP:F9 CYC: 70
F915  30 03     BMI                             A:80 X:A0 Y:80 P:27 SP:F9 CYC: 76
F917  90 01     BCC                             A:80 X:A0 Y:80 P:27 SP:F9 CYC: 82
F919  60        RTS                             A:80 X:A0 Y:80 P:27 SP:F9 CYC: 88
D410  E8        INX                             A:80 X:A0 Y:80 P:27 SP:FB CYC:106
D411  A9 81     LDA                             A:80 X:A1 Y:80 P:A5 SP:FB CYC:112
D413  85 78     STA                             A:81 X:A1 Y:80 P:A5 SP:FB CYC:118
D415  C4 78     CPY                             A:81 X:A1 Y:80 P:A5 SP:FB CYC:127
D417  20 1D F9  JSR                             A:81 X:A1 Y:80 P:A4 SP:FB CYC:136
F91D  B0 05     BCS                             A:81 X:A1 Y:80 P:A4 SP:F9 CYC:154
F91F  F0 03     BEQ                             A:81 X:A1 Y:80 P:A4 SP:F9 CYC:160
F921  10 01     BPL                             A:81 X:A1 Y:80 P:A4 SP:F9 CYC:166
F923  60        RTS                             A:81 X:A1 Y:80 P:A4 SP:F9 CYC:172
D41A  E8        INX                             A:81 X:A1 Y:80 P:A4 SP:FB CYC:190
D41B  A9 7F     LDA                             A:81 X:A2 Y:80 P:A4 SP:FB CYC:196
D41D  85 78     STA                             A:7F X:A2 Y:80 P:24 SP:FB CYC:202
D41F  C4 78     CPY                             A:7F X:A2 Y:80 P:24 SP:FB CYC:211
D421  20 27 F9  JSR                             A:7F X:A2 Y:80 P:25 SP:FB CYC:220
F927  90 05     BCC                             A:7F X:A2 Y:80 P:25 SP:F9 CYC:238
F929  F0 03     BEQ                             A:7F X:A2 Y:80 P:25 SP:F9 CYC:244
F92B  30 01     BMI                             A:7F X:A2 Y:80 P:25 SP:F9 CYC:250
F92D  60        RTS                             A:7F X:A2 Y:80 P:25 SP:F9 CYC:256
D424  E8        INX                             A:7F X:A2 Y:80 P:25 SP:FB CYC:274
D425  8A        TXA                             A:7F X:A3 Y:80 P:A5 SP:FB CYC:280
D426  A8        TAY                             A:A3 X:A3 Y:80 P:A5 SP:FB CYC:286
D427  20 90 F9  JSR                             A:A3 X:A3 Y:A3 P:A5 SP:FB CYC:292
F990  A2 55     LDX                             A:A3 X:A3 Y:A3 P:A5 SP:F9 CYC:310
F992  A9 FF     LDA                             A:A3 X:55 Y:A3 P:25 SP:F9 CYC:316
F994  85 01     STA                             A:FF X:55 Y:A3 P:A5 SP:F9 CYC:322
F996  EA        NOP                             A:FF X:55 Y:A3 P:A5 SP:F9 CYC:331
F997  24 01     BIT                             A:FF X:55 Y:A3 P:A5 SP:F9 CYC:337
F999  38        SEC                             A:FF X:55 Y:A3 P:E5 SP:F9 CYC:  5
F99A  A9 01     LDA                             A:FF X:55 Y:A3 P:E5 SP:F9 CYC: 11
F99C  60        RTS                             A:01 X:55 Y:A3 P:65 SP:F9 CYC: 17
D42A  85 78     STA                             A:01 X:55 Y:A3 P:65 SP:FB CYC: 35
D42C  46 78     LSR                             A:01 X:55 Y:A3 P:65 SP:FB CYC: 44
D42E  A5 78     LDA                             A:01 X:55 Y:A3 P:67 SP:FB CYC: 59
D430  20 9D F9  JSR                             A:00 X:55 Y:A3 P:67 SP:FB CYC: 68
F99D  90 1B     BCC                             A:00 X:55 Y:A3 P:67 SP:F9 CYC: 86
F99F  D0 19     BNE                             A:00 X:55 Y:A3 P:67 SP:F9 CYC: 92
F9A1  30 17     BMI                             A:00 X:55 Y:A3 P:67 SP:F9 CYC: 98
F9A3  50 15     BVC                             A:00 X:55 Y:A3 P:67 SP:F9 CYC:104
F9A5  C9 00     CMP                             A:00 X:55 Y:A3 P:67 SP:F9 CYC:110
F9A7  D0 11     BNE                             A:00 X:55 Y:A3 P:67 SP:F9 CYC:116
F9A9  B8        CLV                             A:00 X:55 Y:A3 P:67 SP:F9 CYC:122
F9AA  A9 AA     LDA                             A:00 X:55 Y:A3 P:27 SP:F9 CYC:128
F9AC  60        RTS                             A:AA X:55 Y:A3 P:A5 SP:F9 CYC:134
D433  C8        INY                             A:AA X:55 Y:A3 P:A5 SP:FB CYC:152
D434  85 78     STA                             A:AA X:55 Y:A4 P:A5 SP:FB CYC:158
D436  46 78     LSR                             A:AA X:55 Y:A4 P:A5 SP:FB CYC:167
D438  A5 78     LDA                             A:AA X:55 Y:A4 P:24 SP:FB CYC:182
D43A  20 AD F9  JSR                             A:55 X:55 Y:A4 P:24 SP:FB CYC:191
F9AD  B0 0B     BCS                             A:55 X:55 Y:A4 P:24 SP:F9 CYC:209
F9AF  F0 09     BEQ                             A:55 X:55 Y:A4 P:24 SP:F9 CYC:215
F9B1  30 07     BMI                             A:55 X:55 Y:A4 P:24 SP:F9 CYC:221
F9B3  70 05     BVS                             A:55 X:55 Y:A4 P:24 SP:F9 CYC:227
F9B5  C9 55     CMP                             A:55 X:55 Y:A4 P:24 SP:F9 CYC:233
F9B7  D0 01     BNE                             A:55 X:55 Y:A4 P:27 SP:F9 CYC:239
F9B9  60        RTS                             A:55 X:55 Y:A4 P:27 SP:F9 CYC:245
D43D  C8        INY                             A:55 X:55 Y:A4 P:27 SP:FB CYC:263
D43E  20 BD F9  JSR                             A:55 X:55 Y:A5 P:A5 SP:FB CYC:269
F9BD  24 01     BIT                             A:55 X:55 Y:A5 P:A5 SP:F9 CYC:287
F9BF  38        SEC                             A:55 X:55 Y:A5 P:E5 SP:F9 CYC:296
F9C0  A9 80     LDA                             A:55 X:55 Y:A5 P:E5 SP:F9 CYC:302
F9C2  60        RTS                             A:80 X:55 Y:A5 P:E5 SP:F9 CYC:308
D441  85 78     STA                             A:80 X:55 Y:A5 P:E5 SP:FB CYC:326
D443  06 78     ASL                             A:80 X:55 Y:A5 P:E5 SP:FB CYC:335
D445  A5 78     LDA                             A:80 X:55 Y:A5 P:67 SP:FB CYC:  9
D447  20 C3 F9  JSR                             A:00 X:55 Y:A5 P:67 SP:FB CYC: 18
F9C3  90 1C     BCC                             A:00 X:55 Y:A5 P:67 SP:F9 CYC: 36
F9C5  D0 1A     BNE                             A:00 X:55 Y:A5 P:67 SP:F9 CYC: 42
F9C7  30 18     BMI                             A:00 X:55 Y:A5 P:67 SP:F9 CYC: 48
F9C9  50 16     BVC                             A:00 X:55 Y:A5 P:67 SP:F9 CYC: 54
F9CB  C9 00     CMP                             A:00 X:55 Y:A5 P:67 SP:F9 CYC: 60
F9CD  D0 12     BNE                             A:00 X:55 Y:A5 P:67 SP:F9 CYC: 66
F9CF  B8        CLV                             A:00 X:55 Y:A5 P:67 SP:F9 CYC: 72
F9D0  A9 55     LDA                             A:00 X:55 Y:A5 P:27 SP:F9 CYC: 78
F9D2  38        SEC                             A:55 X:55 Y:A5 P:25 SP:F9 CYC: 84
F9D3  60        RTS                             A:55 X:55 Y:A5 P:25 SP:F9 CYC: 90
D44A  C8        INY                             A:55 X:55 Y:A5 P:25 SP:FB CYC:108
D44B  85 78     STA                             A:55 X:55 Y:A6 P:A5 SP:FB CYC:114
D44D  06 78     ASL                             A:55 X:55 Y:A6 P:A5 SP:FB CYC:123
D44F  A5 78     LDA                             A:55 X:55 Y:A6 P:A4 SP:FB CYC:138
D451  20 D4 F9  JSR                             A:AA X:55 Y:A6 P:A4 SP:FB CYC:147
F9D4  B0 0B     BCS                             A:AA X:55 Y:A6 P:A4 SP:F9 CYC:165
F9D6  F0 09     BEQ                             A:AA X:55 Y:A6 P:A4 SP:F9 CYC:171
F9D8  10 07     BPL                             A:AA X:55 Y:A6 P:A4 SP:F9 CYC:177
F9DA  70 05     BVS                             A:AA X:55 Y:A6 P:A4 SP:F9 CYC:183
F9DC  C9 AA     CMP                             A:AA X:55 Y:A6 P:A4 SP:F9 CYC:189
F9DE  D0 01     BNE                             A:AA X:55 Y:A6 P:27 SP:F9 CYC:195
F9E0  60        RTS                             A:AA X:55 Y:A6 P:27 SP:F9 CYC:201
D454  C8        INY                             A:AA X:55 Y:A6 P:27 SP:FB CYC:219
D455  20 E4 F9  JSR                             A:AA X:55 Y:A7 P:A5 SP:FB CYC:225
F9E4  24 01     BIT                             A:AA X:55 Y:A7 P:A5 SP:F9 CYC:243
F9E6  38        SEC                             A:AA X:55 Y:A7 P:E5 SP:F9 CYC:252
F9E7  A9 01     LDA                             A:AA X:55 Y:A7 P:E5 SP:F9 CYC:258
F9E9  60        RTS                             A:01 X:55 Y:A7 P:65 SP:F9 CYC:264
D458  85 78     STA                             A:01 X:55 Y:A7 P:65 SP:FB CYC:282
D45A  66 78     ROR                             A:01 X:55 Y:A7 P:65 SP:FB CYC:291
D45C  A5 78     LDA                             A:01 X:55 Y:A7 P:E5 SP:FB CYC:306
D45E  20 EA F9  JSR                             A:80 X:55 Y:A7 P:E5 SP:FB CYC:315
F9EA  90 1C     BCC                             A:80 X:55 Y:A7 P:E5 SP:F9 CYC:333
F9EC  F0 1A     BEQ                             A:80 X:55 Y:A7 P:E5 SP:F9 CYC:339
F9EE  10 18     BPL                             A:80 X:55 Y:A7 P:E5 SP:F9 CYC:  4
F9F0  50 16     BVC                             A:80 X:55 Y:A7 P:E5 SP:F9 CYC: 10
F9F2  C9 80     CMP                             A:80 X:55 Y:A7 P:E5 SP:F9 CYC: 16
F9F4  D0 12     BNE                             A:80 X:55 Y:A7 P:67 SP:F9 CYC: 22
F9F6  B8        CLV                             A:80 X:55 Y:A7 P:67 SP:F9 CYC: 28
F9F7  18        CLC                             A:80 X:55 Y:A7 P:27 SP:F9 CYC: 34
F9F8  A9 55     LDA                             A:80 X:55 Y:A7 P:26 SP:F9 CYC: 40
F9FA  60        RTS                             A:55 X:55 Y:A7 P:24 SP:F9 CYC: 46
D461  C8        INY                             A:55 X:55 Y:A7 P:24 SP:FB CYC: 64
D462  85 78     STA                             A:55 X:55 Y:A8 P:A4 SP:FB CYC: 70
D464  66 78     ROR                             A:55 X:55 Y:A8 P:A4 SP:FB CYC: 79
D466  A5 78     LDA                             A:55 X:55 Y:A8 P:25 SP:FB CYC: 94
D468  20 FB F9  JSR                             A:2A X:55 Y:A8 P:25 SP:FB CYC:103
F9FB  90 0B     BCC                             A:2A X:55 Y:A8 P:25 SP:F9 CYC:121
F9FD  F0 09     BEQ                             A:2A X:55 Y:A8 P:25 SP:F9 CYC:127
F9FF  30 07     BMI                             A:2A X:55 Y:A8 P:25 SP:F9 CYC:133
FA01  70 05     BVS                             A:2A X:55 Y:A8 P:25 SP:F9 CYC:139
FA03  C9 2A     CMP                             A:2A X:55 Y:A8 P:25 SP:F9 CYC:145
FA05  D0 01     BNE                             A:2A X:55 Y:A8 P:27 SP:F9 CYC:151
FA07  60        RTS                             A:2A X:55 Y:A8 P:27 SP:F9 CYC:157
D46B  C8        INY                             A:2A X:55 Y:A8 P:27 SP:FB CYC:175
D46C  20 0A FA  JSR                             A:2A X:55 Y:A9 P:A5 SP:FB CYC:181
FA0A  24 01     BIT                             A:2A X:55 Y:A9 P:A5 SP:F9 CYC:199
FA0C  38        SEC                             A:2A X:55 Y:A9 P:E5 SP:F9 CYC:208
FA0D  A9 80     LDA                             A:2A X:55 Y:A9 P:E5 SP:F9 CYC:214
FA0F  60        RTS                             A:80 X:55 Y:A9 P:E5 SP:F9 CYC:220
D46F  85 78     STA                             A:80 X:55 Y:A9 P:E5 SP:FB CYC:238
D471  26 78     ROL                             A:80 X:55 Y:A9 P:E5 SP:FB CYC:247
D473  A5 78     LDA                             A:80 X:55 Y:A9 P:65 SP:FB CYC:262
D475  20 10 FA  JSR                             A:01 X:55 Y:A9 P:65 SP:FB CYC:271
FA10  90 1C     BCC                             A:01 X:55 Y:A9 P:65 SP:F9 CYC:289
FA12  F0 1A     BEQ                             A:01 X:55 Y:A9 P:65 SP:F9 CYC:295
FA14  30 18     BMI                             A:01 X:55 Y:A9 P:65 SP:F9 CYC:301
FA16  50 16     BVC                             A:01 X:55 Y:A9 P:65 SP:F9 CYC:307
FA18  C9 01     CMP                             A:01 X:55 Y:A9 P:65 SP:F9 CYC:313
FA1A  D0 12     BNE                             A:01 X:55 Y:A9 P:67 SP:F9 CYC:319
FA1C  B8        CLV                             A:01 X:55 Y:A9 P:67 SP:F9 CYC:325
FA1D  18        CLC                             A:01 X:55 Y:A9 P:27 SP:F9 CYC:331
FA1E  A9 55     LDA                             A:01 X:55 Y:A9 P:26 SP:F9 CYC:337
FA20  60        RTS                             A:55 X:55 Y:A9 P:24 SP:F9 CYC:  2
D478  C8        INY                             A:55 X:55 Y:A9 P:24 SP:FB CYC: 20
D479  85 78     STA                             A:55 X:55 Y:AA P:A4 SP:FB CYC: 26
D47B  26 78     ROL                             A:55 X:55 Y:AA P:A4 SP:FB CYC: 35
D47D  A5 78     LDA                             A:55 X:55 Y:AA P:A4 SP:FB CYC: 50
D47F  20 21 FA  JSR                             A:AA X:55 Y:AA P:A4 SP:FB CYC: 59
FA21  B0 0B     BCS                             A:AA X:55 Y:AA P:A4 SP:F9 CYC: 77
FA23  F0 09     BEQ                             A:AA X:55 Y:AA P:A4 SP:F9 CYC: 83
FA25  10 07     BPL                             A:AA X:55 Y:AA P:A4 SP:F9 CYC: 89
FA27  70 05     BVS                             A:AA X:55 Y:AA P:A4 SP:F9 CYC: 95
FA29  C9 AA     CMP                             A:AA X:55 Y:AA P:A4 SP:F9 CYC:101
FA2B  D0 01     BNE                             A:AA X:55 Y:AA P:27 SP:F9 CYC:107
FA2D  60        RTS                             A:AA X:55 Y:AA P:27 SP:F9 CYC:113
D482  A9 FF     LDA                             A:AA X:55 Y:AA P:27 SP:FB CYC:131
D484  85 78     STA                             A:FF X:55 Y:AA P:A5 SP:FB CYC:137
D486  85 01     STA                             A:FF X:55 Y:AA P:A5 SP:FB CYC:146
D488  24 01     BIT                             A:FF X:55 Y:AA P:A5 SP:FB CYC:155
D48A  38        SEC                             A:FF X:55 Y:AA P:E5 SP:FB CYC:164
D48B  E6 78     INC                             A:FF X:55 Y:AA P:E5 SP:FB CYC:170
D48D  D0 0C     BNE                             A:FF X:55 Y:AA P:67 SP:FB CYC:185
D48F  30 0A     BMI                             A:FF X:55 Y:AA P:67 SP:FB CYC:191
D491  50 08     BVC                             A:FF X:55 Y:AA P:67 SP:FB CYC:197
D493  90 06     BCC                             A:FF X:55 Y:AA P:67 SP:FB CYC:203
D495  A5 78     LDA                             A:FF X:55 Y:AA P:67 SP:FB CYC:209
D497  C9 00     CMP                             A:100 X:55 Y:AA P:67 SP:FB CYC:218
D499  F0 04     BEQ                             A:100 X:55 Y:AA P:67 SP:FB CYC:224
D49F  A9 7F     LDA                             A:100 X:55 Y:AA P:67 SP:FB CYC:233
D4A1  85 78     STA                             A:7F X:55 Y:AA P:65 SP:FB CYC:239
D4A3  B8        CLV                             A:7F X:55 Y:AA P:65 SP:FB CYC:248
D4A4  18        CLC                             A:7F X:55 Y:AA P:25 SP:FB CYC:254
D4A5  E6 78     INC                             A:7F X:55 Y:AA P:24 SP:FB CYC:260
D4A7  F0 0C     BEQ                             A:7F X:55 Y:AA P:A4 SP:FB CYC:275
D4A9  10 0A     BPL                             A:7F X:55 Y:AA P:A4 SP:FB CYC:281
D4AB  70 08     BVS                             A:7F X:55 Y:AA P:A4 SP:FB CYC:287
D4AD  B0 06     BCS                             A:7F X:55 Y:AA P:A4 SP:FB CYC:293
D4AF  A5 78     LDA                             A:7F X:55 Y:AA P:A4 SP:FB CYC:299
D4B1  C9 80     CMP                             A:80 X:55 Y:AA P:A4 SP:FB CYC:308
D4B3  F0 04     BEQ                             A:80 X:55 Y:AA P:27 SP:FB CYC:314
D4B9  A9 00     LDA                             A:80 X:55 Y:AA P:27 SP:FB CYC:323
D4BB  85 78     STA                             A:00 X:55 Y:AA P:27 SP:FB CYC:329
D4BD  24 01     BIT                             A:00 X:55 Y:AA P:27 SP:FB CYC:338
D4BF  38        SEC                             A:00 X:55 Y:AA P:E7 SP:FB CYC:  6
D4C0  C6 78     DEC                             A:00 X:55 Y:AA P:E7 SP:FB CYC: 12
D4C2  F0 0C     BEQ                             A:00 X:55 Y:AA P:E5 SP:FB CYC: 27
D4C4  10 0A     BPL                             A:00 X:55 Y:AA P:E5 SP:FB CYC: 33
D4C6  50 08     BVC                             A:00 X:55 Y:AA P:E5 SP:FB CYC: 39
D4C8  90 06     BCC                             A:00 X:55 Y:AA P:E5 SP:FB CYC: 45
D4CA  A5 78     LDA                             A:00 X:55 Y:AA P:E5 SP:FB CYC: 51
D4CC  C9 FF     CMP                             A:-1 X:55 Y:AA P:E5 SP:FB CYC: 60
D4CE  F0 04     BEQ                             A:-1 X:55 Y:AA P:66 SP:FB CYC: 66
D4D4  A9 80     LDA                             A:-1 X:55 Y:AA P:66 SP:FB CYC: 75
D4D6  85 78     STA                             A:80 X:55 Y:AA P:E4 SP:FB CYC: 81
D4D8  B8        CLV                             A:80 X:55 Y:AA P:E4 SP:FB CYC: 90
D4D9  18        CLC                             A:80 X:55 Y:AA P:A4 SP:FB CYC: 96
D4DA  C6 78     DEC                             A:80 X:55 Y:AA P:A4 SP:FB CYC:102
D4DC  F0 0C     BEQ                             A:80 X:55 Y:AA P:24 SP:FB CYC:117
D4DE  30 0A     BMI                             A:80 X:55 Y:AA P:24 SP:FB CYC:123
D4E0  70 08     BVS                             A:80 X:55 Y:AA P:24 SP:FB CYC:129
D4E2  B0 06     BCS                             A:80 X:55 Y:AA P:24 SP:FB CYC:135
D4E4  A5 78     LDA                             A:80 X:55 Y:AA P:24 SP:FB CYC:141
D4E6  C9 7F     CMP                             A:7F X:55 Y:AA P:24 SP:FB CYC:150
D4E8  F0 04     BEQ                             A:7F X:55 Y:AA P:27 SP:FB CYC:156
D4EE  A9 01     LDA                             A:7F X:55 Y:AA P:27 SP:FB CYC:165
D4F0  85 78     STA                             A:01 X:55 Y:AA P:25 SP:FB CYC:171
D4F2  C6 78     DEC                             A:01 X:55 Y:AA P:25 SP:FB CYC:180
D4F4  F0 04     BEQ                             A:01 X:55 Y:AA P:27 SP:FB CYC:195
D4FA  60        RTS                             A:01 X:55 Y:AA P:27 SP:FB CYC:204
C615  20 FB D4  JSR                             A:01 X:55 Y:AA P:27 SP:FD CYC:222
D4FB  A9 55     LDA                             A:01 X:55 Y:AA P:27 SP:FB CYC:240
D4FD  8D 78 06  STA                             A:55 X:55 Y:AA P:25 SP:FB CYC:246
D500  A9 FF     LDA                             A:55 X:55 Y:AA P:25 SP:FB CYC:258
D502  85 01     STA                             A:FF X:55 Y:AA P:A5 SP:FB CYC:264
D504  24 01     BIT                             A:FF X:55 Y:AA P:A5 SP:FB CYC:273
D506  A0 11     LDY                             A:FF X:55 Y:AA P:E5 SP:FB CYC:282
D508  A2 23     LDX                             A:FF X:55 Y:11 P:65 SP:FB CYC:288
D50A  A9 00     LDA                             A:FF X:23 Y:11 P:65 SP:FB CYC:294
D50C  AD 78 06  LDA                             A:00 X:23 Y:11 P:67 SP:FB CYC:300
D50F  F0 10     BEQ                             A:55 X:23 Y:11 P:65 SP:FB CYC:312
D511  30 0E     BMI                             A:55 X:23 Y:11 P:65 SP:FB CYC:318
D513  C9 55     CMP                             A:55 X:23 Y:11 P:65 SP:FB CYC:324
D515  D0 0A     BNE                             A:55 X:23 Y:11 P:67 SP:FB CYC:330
D517  C0 11     CPY                             A:55 X:23 Y:11 P:67 SP:FB CYC:336
D519  D0 06     BNE                             A:55 X:23 Y:11 P:67 SP:FB CYC:  1
D51B  E0 23     CPX                             A:55 X:23 Y:11 P:67 SP:FB CYC:  7
D51D  50 02     BVC                             A:55 X:23 Y:11 P:67 SP:FB CYC: 13
D51F  F0 04     BEQ                             A:55 X:23 Y:11 P:67 SP:FB CYC: 19
D525  A9 46     LDA                             A:55 X:23 Y:11 P:67 SP:FB CYC: 28
D527  24 01     BIT                             A:46 X:23 Y:11 P:65 SP:FB CYC: 34
D529  8D 78 06  STA                             A:46 X:23 Y:11 P:E5 SP:FB CYC: 43
D52C  F0 0B     BEQ                             A:46 X:23 Y:11 P:E5 SP:FB CYC: 55
D52E  10 09     BPL                             A:46 X:23 Y:11 P:E5 SP:FB CYC: 61
D530  50 07     BVC                             A:46 X:23 Y:11 P:E5 SP:FB CYC: 67
D532  AD 78 06  LDA                             A:46 X:23 Y:11 P:E5 SP:FB CYC: 73
D535  C9 46     CMP                             A:46 X:23 Y:11 P:65 SP:FB CYC: 85
D537  F0 04     BEQ                             A:46 X:23 Y:11 P:67 SP:FB CYC: 91
D53D  A9 55     LDA                             A:46 X:23 Y:11 P:67 SP:FB CYC:100
D53F  8D 78 06  STA                             A:55 X:23 Y:11 P:65 SP:FB CYC:106
D542  24 01     BIT                             A:55 X:23 Y:11 P:65 SP:FB CYC:118
D544  A9 11     LDA                             A:55 X:23 Y:11 P:E5 SP:FB CYC:127
D546  A2 23     LDX                             A:11 X:23 Y:11 P:65 SP:FB CYC:133
D548  A0 00     LDY                             A:11 X:23 Y:11 P:65 SP:FB CYC:139
D54A  AC 78 06  LDY                             A:11 X:23 Y:00 P:67 SP:FB CYC:145
D54D  F0 10     BEQ                             A:11 X:23 Y:55 P:65 SP:FB CYC:157
D54F  30 0E     BMI                             A:11 X:23 Y:55 P:65 SP:FB CYC:163
D551  C0 55     CPY                             A:11 X:23 Y:55 P:65 SP:FB CYC:169
D553  D0 0A     BNE                             A:11 X:23 Y:55 P:67 SP:FB CYC:175
D555  C9 11     CMP                             A:11 X:23 Y:55 P:67 SP:FB CYC:181
D557  D0 06     BNE                             A:11 X:23 Y:55 P:67 SP:FB CYC:187
D559  E0 23     CPX                             A:11 X:23 Y:55 P:67 SP:FB CYC:193
D55B  50 02     BVC                             A:11 X:23 Y:55 P:67 SP:FB CYC:199
D55D  F0 04     BEQ                             A:11 X:23 Y:55 P:67 SP:FB CYC:205
D563  A0 46     LDY                             A:11 X:23 Y:55 P:67 SP:FB CYC:214
D565  24 01     BIT                             A:11 X:23 Y:46 P:65 SP:FB CYC:220
D567  8C 78 06  STY                             A:11 X:23 Y:46 P:E5 SP:FB CYC:229
D56A  F0 0B     BEQ                             A:11 X:23 Y:46 P:E5 SP:FB CYC:241
D56C  10 09     BPL                             A:11 X:23 Y:46 P:E5 SP:FB CYC:247
D56E  50 07     BVC                             A:11 X:23 Y:46 P:E5 SP:FB CYC:253
D570  AC 78 06  LDY                             A:11 X:23 Y:46 P:E5 SP:FB CYC:259
D573  C0 46     CPY                             A:11 X:23 Y:46 P:65 SP:FB CYC:271
D575  F0 04     BEQ                             A:11 X:23 Y:46 P:67 SP:FB CYC:277
D57B  24 01     BIT                             A:11 X:23 Y:46 P:67 SP:FB CYC:286
D57D  A9 55     LDA                             A:11 X:23 Y:46 P:E5 SP:FB CYC:295
D57F  8D 78 06  STA                             A:55 X:23 Y:46 P:65 SP:FB CYC:301
D582  A0 11     LDY                             A:55 X:23 Y:46 P:65 SP:FB CYC:313
D584  A9 23     LDA                             A:55 X:23 Y:11 P:65 SP:FB CYC:319
D586  A2 00     LDX                             A:23 X:23 Y:11 P:65 SP:FB CYC:325
D588  AE 78 06  LDX                             A:23 X:00 Y:11 P:67 SP:FB CYC:331
D58B  F0 10     BEQ                             A:23 X:55 Y:11 P:65 SP:FB CYC:  2
D58D  30 0E     BMI                             A:23 X:55 Y:11 P:65 SP:FB CYC:  8
D58F  E0 55     CPX                             A:23 X:55 Y:11 P:65 SP:FB CYC: 14
D591  D0 0A     BNE                             A:23 X:55 Y:11 P:67 SP:FB CYC: 20
D593  C0 11     CPY                             A:23 X:55 Y:11 P:67 SP:FB CYC: 26
D595  D0 06     BNE                             A:23 X:55 Y:11 P:67 SP:FB CYC: 32
D597  C9 23     CMP                             A:23 X:55 Y:11 P:67 SP:FB CYC: 38
D599  50 02     BVC                             A:23 X:55 Y:11 P:67 SP:FB CYC: 44
D59B  F0 04     BEQ                             A:23 X:55 Y:11 P:67 SP:FB CYC: 50
D5A1  A2 46     LDX                             A:23 X:55 Y:11 P:67 SP:FB CYC: 59
D5A3  24 01     BIT                             A:23 X:46 Y:11 P:65 SP:FB CYC: 65
D5A5  8E 78 06  STX                             A:23 X:46 Y:11 P:E5 SP:FB CYC: 74
D5A8  F0 0B     BEQ                             A:23 X:46 Y:11 P:E5 SP:FB CYC: 86
D5AA  10 09     BPL                             A:23 X:46 Y:11 P:E5 SP:FB CYC: 92
D5AC  50 07     BVC                             A:23 X:46 Y:11 P:E5 SP:FB CYC: 98
D5AE  AE 78 06  LDX                             A:23 X:46 Y:11 P:E5 SP:FB CYC:104
D5B1  E0 46     CPX                             A:23 X:46 Y:11 P:65 SP:FB CYC:116
D5B3  F0 04     BEQ                             A:23 X:46 Y:11 P:67 SP:FB CYC:122
D5B9  A9 C0     LDA                             A:23 X:46 Y:11 P:67 SP:FB CYC:131
D5BB  8D 78 06  STA                             A:C0 X:46 Y:11 P:E5 SP:FB CYC:137
D5BE  A2 33     LDX                             A:C0 X:46 Y:11 P:E5 SP:FB CYC:149
D5C0  A0 88     LDY                             A:C0 X:33 Y:11 P:65 SP:FB CYC:155
D5C2  A9 05     LDA                             A:C0 X:33 Y:88 P:E5 SP:FB CYC:161
D5C4  2C 78 06  BIT                             A:05 X:33 Y:88 P:65 SP:FB CYC:167
D5C7  10 10     BPL                             A:05 X:33 Y:88 P:E7 SP:FB CYC:179
D5C9  50 0E     BVC                             A:05 X:33 Y:88 P:E7 SP:FB CYC:185
D5CB  D0 0C     BNE                             A:05 X:33 Y:88 P:E7 SP:FB CYC:191
D5CD  C9 05     CMP                             A:05 X:33 Y:88 P:E7 SP:FB CYC:197
D5CF  D0 08     BNE                             A:05 X:33 Y:88 P:67 SP:FB CYC:203
D5D1  E0 33     CPX                             A:05 X:33 Y:88 P:67 SP:FB CYC:209
D5D3  D0 04     BNE                             A:05 X:33 Y:88 P:67 SP:FB CYC:215
D5D5  C0 88     CPY                             A:05 X:33 Y:88 P:67 SP:FB CYC:221
D5D7  F0 04     BEQ                             A:05 X:33 Y:88 P:67 SP:FB CYC:227
D5DD  A9 03     LDA                             A:05 X:33 Y:88 P:67 SP:FB CYC:236
D5DF  8D 78 06  STA                             A:03 X:33 Y:88 P:65 SP:FB CYC:242
D5E2  A9 01     LDA                             A:03 X:33 Y:88 P:65 SP:FB CYC:254
D5E4  2C 78 06  BIT                             A:01 X:33 Y:88 P:65 SP:FB CYC:260
D5E7  30 08     BMI                             A:01 X:33 Y:88 P:25 SP:FB CYC:272
D5E9  70 06     BVS                             A:01 X:33 Y:88 P:25 SP:FB CYC:278
D5EB  F0 04     BEQ                             A:01 X:33 Y:88 P:25 SP:FB CYC:284
D5ED  C9 01     CMP                             A:01 X:33 Y:88 P:25 SP:FB CYC:290
D5EF  F0 04     BEQ                             A:01 X:33 Y:88 P:27 SP:FB CYC:296
D5F5  A0 B8     LDY                             A:01 X:33 Y:88 P:27 SP:FB CYC:305
D5F7  A9 AA     LDA                             A:01 X:33 Y:B8 P:A5 SP:FB CYC:311
D5F9  8D 78 06  STA                             A:AA X:33 Y:B8 P:A5 SP:FB CYC:317
D5FC  20 B6 F7  JSR                             A:AA X:33 Y:B8 P:A5 SP:FB CYC:329
F7B6  18        CLC                             A:AA X:33 Y:B8 P:A5 SP:F9 CYC:  6
F7B7  A9 FF     LDA                             A:AA X:33 Y:B8 P:A4 SP:F9 CYC: 12
F7B9  85 01     STA                             A:FF X:33 Y:B8 P:A4 SP:F9 CYC: 18
F7BB  24 01     BIT                             A:FF X:33 Y:B8 P:A4 SP:F9 CYC: 27
F7BD  A9 55     LDA                             A:FF X:33 Y:B8 P:E4 SP:F9 CYC: 36
F7BF  60        RTS                             A:55 X:33 Y:B8 P:64 SP:F9 CYC: 42
D5FF  0D 78 06  ORA                             A:55 X:33 Y:B8 P:64 SP:FB CYC: 60
D602  20 C0 F7  JSR                             A:FF X:33 Y:B8 P:E4 SP:FB CYC: 72
F7C0  B0 09     BCS                             A:FF X:33 Y:B8 P:E4 SP:F9 CYC: 90
F7C2  10 07     BPL                             A:FF X:33 Y:B8 P:E4 SP:F9 CYC: 96
F7C4  C9 FF     CMP                             A:FF X:33 Y:B8 P:E4 SP:F9 CYC:102
F7C6  D0 03     BNE                             A:FF X:33 Y:B8 P:67 SP:F9 CYC:108
F7C8  50 01     BVC                             A:FF X:33 Y:B8 P:67 SP:F9 CYC:114
F7CA  60        RTS                             A:FF X:33 Y:B8 P:67 SP:F9 CYC:120
D605  C8        INY                             A:FF X:33 Y:B8 P:67 SP:FB CYC:138
D606  A9 00     LDA                             A:FF X:33 Y:B9 P:E5 SP:FB CYC:144
D608  8D 78 06  STA                             A:00 X:33 Y:B9 P:67 SP:FB CYC:150
D60B  20 CE F7  JSR                             A:00 X:33 Y:B9 P:67 SP:FB CYC:162
F7CE  38        SEC                             A:00 X:33 Y:B9 P:67 SP:F9 CYC:180
F7CF  B8        CLV                             A:00 X:33 Y:B9 P:67 SP:F9 CYC:186
F7D0  A9 00     LDA                             A:00 X:33 Y:B9 P:27 SP:F9 CYC:192
F7D2  60        RTS                             A:00 X:33 Y:B9 P:27 SP:F9 CYC:198
D60E  0D 78 06  ORA                             A:00 X:33 Y:B9 P:27 SP:FB CYC:216
D611  20 D3 F7  JSR                             A:00 X:33 Y:B9 P:27 SP:FB CYC:228
F7D3  D0 07     BNE                             A:00 X:33 Y:B9 P:27 SP:F9 CYC:246
F7D5  70 05     BVS                             A:00 X:33 Y:B9 P:27 SP:F9 CYC:252
F7D7  90 03     BCC                             A:00 X:33 Y:B9 P:27 SP:F9 CYC:258
F7D9  30 01     BMI                             A:00 X:33 Y:B9 P:27 SP:F9 CYC:264
F7DB  60        RTS                             A:00 X:33 Y:B9 P:27 SP:F9 CYC:270
D614  C8        INY                             A:00 X:33 Y:B9 P:27 SP:FB CYC:288
D615  A9 AA     LDA                             A:00 X:33 Y:BA P:A5 SP:FB CYC:294
D617  8D 78 06  STA                             A:AA X:33 Y:BA P:A5 SP:FB CYC:300
D61A  20 DF F7  JSR                             A:AA X:33 Y:BA P:A5 SP:FB CYC:312
F7DF  18        CLC                             A:AA X:33 Y:BA P:A5 SP:F9 CYC:330
F7E0  24 01     BIT                             A:AA X:33 Y:BA P:A4 SP:F9 CYC:336
F7E2  A9 55     LDA                             A:AA X:33 Y:BA P:E4 SP:F9 CYC:  4
F7E4  60        RTS                             A:55 X:33 Y:BA P:64 SP:F9 CYC: 10
D61D  2D 78 06  AND                             A:55 X:33 Y:BA P:64 SP:FB CYC: 28
D620  20 E5 F7  JSR                             A:00 X:33 Y:BA P:66 SP:FB CYC: 40
F7E5  D0 07     BNE                             A:00 X:33 Y:BA P:66 SP:F9 CYC: 58
F7E7  50 05     BVC                             A:00 X:33 Y:BA P:66 SP:F9 CYC: 64
F7E9  B0 03     BCS                             A:00 X:33 Y:BA P:66 SP:F9 CYC: 70
F7EB  30 01     BMI                             A:00 X:33 Y:BA P:66 SP:F9 CYC: 76
F7ED  60        RTS                             A:00 X:33 Y:BA P:66 SP:F9 CYC: 82
D623  C8        INY                             A:00 X:33 Y:BA P:66 SP:FB CYC:100
D624  A9 EF     LDA                             A:00 X:33 Y:BB P:E4 SP:FB CYC:106
D626  8D 78 06  STA                             A:EF X:33 Y:BB P:E4 SP:FB CYC:112
D629  20 F1 F7  JSR                             A:EF X:33 Y:BB P:E4 SP:FB CYC:124
F7F1  38        SEC                             A:EF X:33 Y:BB P:E4 SP:F9 CYC:142
F7F2  B8        CLV                             A:EF X:33 Y:BB P:E5 SP:F9 CYC:148
F7F3  A9 F8     LDA                             A:EF X:33 Y:BB P:A5 SP:F9 CYC:154
F7F5  60        RTS                             A:F8 X:33 Y:BB P:A5 SP:F9 CYC:160
D62C  2D 78 06  AND                             A:F8 X:33 Y:BB P:A5 SP:FB CYC:178
D62F  20 F6 F7  JSR                             A:E8 X:33 Y:BB P:A5 SP:FB CYC:190
F7F6  90 09     BCC                             A:E8 X:33 Y:BB P:A5 SP:F9 CYC:208
F7F8  10 07     BPL                             A:E8 X:33 Y:BB P:A5 SP:F9 CYC:214
F7FA  C9 E8     CMP                             A:E8 X:33 Y:BB P:A5 SP:F9 CYC:220
F7FC  D0 03     BNE                             A:E8 X:33 Y:BB P:27 SP:F9 CYC:226
F7FE  70 01     BVS                             A:E8 X:33 Y:BB P:27 SP:F9 CYC:232
F800  60        RTS                             A:E8 X:33 Y:BB P:27 SP:F9 CYC:238
D632  C8        INY                             A:E8 X:33 Y:BB P:27 SP:FB CYC:256
D633  A9 AA     LDA                             A:E8 X:33 Y:BC P:A5 SP:FB CYC:262
D635  8D 78 06  STA                             A:AA X:33 Y:BC P:A5 SP:FB CYC:268
D638  20 04 F8  JSR                             A:AA X:33 Y:BC P:A5 SP:FB CYC:280
F804  18        CLC                             A:AA X:33 Y:BC P:A5 SP:F9 CYC:298
F805  24 01     BIT                             A:AA X:33 Y:BC P:A4 SP:F9 CYC:304
F807  A9 5F     LDA                             A:AA X:33 Y:BC P:E4 SP:F9 CYC:313
F809  60        RTS                             A:5F X:33 Y:BC P:64 SP:F9 CYC:319
D63B  4D 78 06  EOR                             A:5F X:33 Y:BC P:64 SP:FB CYC:337
D63E  20 0A F8  JSR                             A:F5 X:33 Y:BC P:E4 SP:FB CYC:  8
F80A  B0 09     BCS                             A:F5 X:33 Y:BC P:E4 SP:F9 CYC: 26
F80C  10 07     BPL                             A:F5 X:33 Y:BC P:E4 SP:F9 CYC: 32
F80E  C9 F5     CMP                             A:F5 X:33 Y:BC P:E4 SP:F9 CYC: 38
F810  D0 03     BNE                             A:F5 X:33 Y:BC P:67 SP:F9 CYC: 44
F812  50 01     BVC                             A:F5 X:33 Y:BC P:67 SP:F9 CYC: 50
F814  60        RTS                             A:F5 X:33 Y:BC P:67 SP:F9 CYC: 56
D641  C8        INY                             A:F5 X:33 Y:BC P:67 SP:FB CYC: 74
D642  A9 70     LDA                             A:F5 X:33 Y:BD P:E5 SP:FB CYC: 80
D644  8D 78 06  STA                             A:70 X:33 Y:BD P:65 SP:FB CYC: 86
D647  20 18 F8  JSR                             A:70 X:33 Y:BD P:65 SP:FB CYC: 98
F818  38        SEC                             A:70 X:33 Y:BD P:65 SP:F9 CYC:116
F819  B8        CLV                             A:70 X:33 Y:BD P:65 SP:F9 CYC:122
F81A  A9 70     LDA                             A:70 X:33 Y:BD P:25 SP:F9 CYC:128
F81C  60        RTS                             A:70 X:33 Y:BD P:25 SP:F9 CYC:134
D64A  4D 78 06  EOR                             A:70 X:33 Y:BD P:25 SP:FB CYC:152
D64D  20 1D F8  JSR                             A:00 X:33 Y:BD P:27 SP:FB CYC:164
F81D  D0 07     BNE                             A:00 X:33 Y:BD P:27 SP:F9 CYC:182
F81F  70 05     BVS                             A:00 X:33 Y:BD P:27 SP:F9 CYC:188
F821  90 03     BCC                             A:00 X:33 Y:BD P:27 SP:F9 CYC:194
F823  30 01     BMI                             A:00 X:33 Y:BD P:27 SP:F9 CYC:200
F825  60        RTS                             A:00 X:33 Y:BD P:27 SP:F9 CYC:206
D650  C8        INY                             A:00 X:33 Y:BD P:27 SP:FB CYC:224
D651  A9 69     LDA                             A:00 X:33 Y:BE P:A5 SP:FB CYC:230
D653  8D 78 06  STA                             A:69 X:33 Y:BE P:25 SP:FB CYC:236
D656  20 29 F8  JSR                             A:69 X:33 Y:BE P:25 SP:FB CYC:248
F829  18        CLC                             A:69 X:33 Y:BE P:25 SP:F9 CYC:266
F82A  24 01     BIT                             A:69 X:33 Y:BE P:24 SP:F9 CYC:272
F82C  A9 00     LDA                             A:69 X:33 Y:BE P:E4 SP:F9 CYC:281
F82E  60        RTS                             A:00 X:33 Y:BE P:66 SP:F9 CYC:287
D659  6D 78 06  ADC                             A:00 X:33 Y:BE P:66 SP:FB CYC:305
D65C  20 2F F8  JSR                             A:69 X:33 Y:BE P:24 SP:FB CYC:317
F82F  30 09     BMI                             A:69 X:33 Y:BE P:24 SP:F9 CYC:335
F831  B0 07     BCS                             A:69 X:33 Y:BE P:24 SP:F9 CYC:  0
F833  C9 69     CMP                             A:69 X:33 Y:BE P:24 SP:F9 CYC:  6
F835  D0 03     BNE                             A:69 X:33 Y:BE P:27 SP:F9 CYC: 12
F837  70 01     BVS                             A:69 X:33 Y:BE P:27 SP:F9 CYC: 18
F839  60        RTS                             A:69 X:33 Y:BE P:27 SP:F9 CYC: 24
D65F  C8        INY                             A:69 X:33 Y:BE P:27 SP:FB CYC: 42
D660  20 3D F8  JSR                             A:69 X:33 Y:BF P:A5 SP:FB CYC: 48
F83D  38        SEC                             A:69 X:33 Y:BF P:A5 SP:F9 CYC: 66
F83E  24 01     BIT                             A:69 X:33 Y:BF P:A5 SP:F9 CYC: 72
F840  A9 00     LDA                             A:69 X:33 Y:BF P:E5 SP:F9 CYC: 81
F842  60        RTS                             A:00 X:33 Y:BF P:67 SP:F9 CYC: 87
D663  6D 78 06  ADC                             A:00 X:33 Y:BF P:67 SP:FB CYC:105
D666  20 43 F8  JSR                             A:6A X:33 Y:BF P:24 SP:FB CYC:117
F843  30 09     BMI                             A:6A X:33 Y:BF P:24 SP:F9 CYC:135
F845  B0 07     BCS                             A:6A X:33 Y:BF P:24 SP:F9 CYC:141
F847  C9 6A     CMP                             A:6A X:33 Y:BF P:24 SP:F9 CYC:147
F849  D0 03     BNE                             A:6A X:33 Y:BF P:27 SP:F9 CYC:153
F84B  70 01     BVS                             A:6A X:33 Y:BF P:27 SP:F9 CYC:159
F84D  60        RTS                             A:6A X:33 Y:BF P:27 SP:F9 CYC:165
D669  C8        INY                             A:6A X:33 Y:BF P:27 SP:FB CYC:183
D66A  A9 7F     LDA                             A:6A X:33 Y:C0 P:A5 SP:FB CYC:189
D66C  8D 78 06  STA                             A:7F X:33 Y:C0 P:25 SP:FB CYC:195
D66F  20 51 F8  JSR                             A:7F X:33 Y:C0 P:25 SP:FB CYC:207
F851  38        SEC                             A:7F X:33 Y:C0 P:25 SP:F9 CYC:225
F852  B8        CLV                             A:7F X:33 Y:C0 P:25 SP:F9 CYC:231
F853  A9 7F     LDA                             A:7F X:33 Y:C0 P:25 SP:F9 CYC:237
F855  60        RTS                             A:7F X:33 Y:C0 P:25 SP:F9 CYC:243
D672  6D 78 06  ADC                             A:7F X:33 Y:C0 P:25 SP:FB CYC:261
D675  20 56 F8  JSR                             A:FF X:33 Y:C0 P:E4 SP:FB CYC:273
F856  10 09     BPL                             A:FF X:33 Y:C0 P:E4 SP:F9 CYC:291
F858  B0 07     BCS                             A:FF X:33 Y:C0 P:E4 SP:F9 CYC:297
F85A  C9 FF     CMP                             A:FF X:33 Y:C0 P:E4 SP:F9 CYC:303
F85C  D0 03     BNE                             A:FF X:33 Y:C0 P:67 SP:F9 CYC:309
F85E  50 01     BVC                             A:FF X:33 Y:C0 P:67 SP:F9 CYC:315
F860  60        RTS                             A:FF X:33 Y:C0 P:67 SP:F9 CYC:321
D678  C8        INY                             A:FF X:33 Y:C0 P:67 SP:FB CYC:339
D679  A9 80     LDA                             A:FF X:33 Y:C1 P:E5 SP:FB CYC:  4
D67B  8D 78 06  STA                             A:80 X:33 Y:C1 P:E5 SP:FB CYC: 10
D67E  20 64 F8  JSR                             A:80 X:33 Y:C1 P:E5 SP:FB CYC: 22
F864  18        CLC                             A:80 X:33 Y:C1 P:E5 SP:F9 CYC: 40
F865  24 01     BIT                             A:80 X:33 Y:C1 P:E4 SP:F9 CYC: 46
F867  A9 7F     LDA                             A:80 X:33 Y:C1 P:E4 SP:F9 CYC: 55
F869  60        RTS                             A:7F X:33 Y:C1 P:64 SP:F9 CYC: 61
D681  6D 78 06  ADC                             A:7F X:33 Y:C1 P:64 SP:FB CYC: 79
D684  20 6A F8  JSR                             A:FF X:33 Y:C1 P:A4 SP:FB CYC: 91
F86A  10 09     BPL                             A:FF X:33 Y:C1 P:A4 SP:F9 CYC:109
F86C  B0 07     BCS                             A:FF X:33 Y:C1 P:A4 SP:F9 CYC:115
F86E  C9 FF     CMP                             A:FF X:33 Y:C1 P:A4 SP:F9 CYC:121
F870  D0 03     BNE                             A:FF X:33 Y:C1 P:27 SP:F9 CYC:127
F872  70 01     BVS                             A:FF X:33 Y:C1 P:27 SP:F9 CYC:133
F874  60        RTS                             A:FF X:33 Y:C1 P:27 SP:F9 CYC:139
D687  C8        INY                             A:FF X:33 Y:C1 P:27 SP:FB CYC:157
D688  20 78 F8  JSR                             A:FF X:33 Y:C2 P:A5 SP:FB CYC:163
F878  38        SEC                             A:FF X:33 Y:C2 P:A5 SP:F9 CYC:181
F879  B8        CLV                             A:FF X:33 Y:C2 P:A5 SP:F9 CYC:187
F87A  A9 7F     LDA                             A:FF X:33 Y:C2 P:A5 SP:F9 CYC:193
F87C  60        RTS                             A:7F X:33 Y:C2 P:25 SP:F9 CYC:199
D68B  6D 78 06  ADC                             A:7F X:33 Y:C2 P:25 SP:FB CYC:217
D68E  20 7D F8  JSR                             A:00 X:33 Y:C2 P:27 SP:FB CYC:229
F87D  D0 07     BNE                             A:00 X:33 Y:C2 P:27 SP:F9 CYC:247
F87F  30 05     BMI                             A:00 X:33 Y:C2 P:27 SP:F9 CYC:253
F881  70 03     BVS                             A:00 X:33 Y:C2 P:27 SP:F9 CYC:259
F883  90 01     BCC                             A:00 X:33 Y:C2 P:27 SP:F9 CYC:265
F885  60        RTS                             A:00 X:33 Y:C2 P:27 SP:F9 CYC:271
D691  C8        INY                             A:00 X:33 Y:C2 P:27 SP:FB CYC:289
D692  A9 40     LDA                             A:00 X:33 Y:C3 P:A5 SP:FB CYC:295
D694  8D 78 06  STA                             A:40 X:33 Y:C3 P:25 SP:FB CYC:301
D697  20 89 F8  JSR                             A:40 X:33 Y:C3 P:25 SP:FB CYC:313
F889  24 01     BIT                             A:40 X:33 Y:C3 P:25 SP:F9 CYC:331
F88B  A9 40     LDA                             A:40 X:33 Y:C3 P:E5 SP:F9 CYC:340
F88D  60        RTS                             A:40 X:33 Y:C3 P:65 SP:F9 CYC:  5
D69A  CD 78 06  CMP                             A:40 X:33 Y:C3 P:65 SP:FB CYC: 23
D69D  20 8E F8  JSR                             A:40 X:33 Y:C3 P:67 SP:FB CYC: 35
F88E  30 07     BMI                             A:40 X:33 Y:C3 P:67 SP:F9 CYC: 53
F890  90 05     BCC                             A:40 X:33 Y:C3 P:67 SP:F9 CYC: 59
F892  D0 03     BNE                             A:40 X:33 Y:C3 P:67 SP:F9 CYC: 65
F894  50 01     BVC                             A:40 X:33 Y:C3 P:67 SP:F9 CYC: 71
F896  60        RTS                             A:40 X:33 Y:C3 P:67 SP:F9 CYC: 77
D6A0  C8        INY                             A:40 X:33 Y:C3 P:67 SP:FB CYC: 95
D6A1  48        PHA                             A:40 X:33 Y:C4 P:E5 SP:FB CYC:101
D6A2  A9 3F     LDA                             A:40 X:33 Y:C4 P:E5 SP:FA CYC:110
D6A4  8D 78 06  STA                             A:3F X:33 Y:C4 P:65 SP:FA CYC:116
D6A7  68        PLA                             A:3F X:33 Y:C4 P:65 SP:FA CYC:128
D6A8  20 9A F8  JSR                             A:40 X:33 Y:C4 P:65 SP:FB CYC:140
F89A  B8        CLV                             A:40 X:33 Y:C4 P:65 SP:F9 CYC:158
F89B  60        RTS                             A:40 X:33 Y:C4 P:25 SP:F9 CYC:164
D6AB  CD 78 06  CMP                             A:40 X:33 Y:C4 P:25 SP:FB CYC:182
D6AE  20 9C F8  JSR                             A:40 X:33 Y:C4 P:25 SP:FB CYC:194
F89C  F0 07     BEQ                             A:40 X:33 Y:C4 P:25 SP:F9 CYC:212
F89E  30 05     BMI                             A:40 X:33 Y:C4 P:25 SP:F9 CYC:218
F8A0  90 03     BCC                             A:40 X:33 Y:C4 P:25 SP:F9 CYC:224
F8A2  70 01     BVS                             A:40 X:33 Y:C4 P:25 SP:F9 CYC:230
F8A4  60        RTS                             A:40 X:33 Y:C4 P:25 SP:F9 CYC:236
D6B1  C8        INY                             A:40 X:33 Y:C4 P:25 SP:FB CYC:254
D6B2  48        PHA                             A:40 X:33 Y:C5 P:A5 SP:FB CYC:260
D6B3  A9 41     LDA                             A:40 X:33 Y:C5 P:A5 SP:FA CYC:269
D6B5  8D 78 06  STA                             A:41 X:33 Y:C5 P:25 SP:FA CYC:275
D6B8  68        PLA                             A:41 X:33 Y:C5 P:25 SP:FA CYC:287
D6B9  CD 78 06  CMP                             A:40 X:33 Y:C5 P:25 SP:FB CYC:299
D6BC  20 A8 F8  JSR                             A:40 X:33 Y:C5 P:A4 SP:FB CYC:311
F8A8  F0 05     BEQ                             A:40 X:33 Y:C5 P:A4 SP:F9 CYC:329
F8AA  10 03     BPL                             A:40 X:33 Y:C5 P:A4 SP:F9 CYC:335
F8AC  10 01     BPL                             A:40 X:33 Y:C5 P:A4 SP:F9 CYC:  0
F8AE  60        RTS                             A:40 X:33 Y:C5 P:A4 SP:F9 CYC:  6
D6BF  C8        INY                             A:40 X:33 Y:C5 P:A4 SP:FB CYC: 24
D6C0  48        PHA                             A:40 X:33 Y:C6 P:A4 SP:FB CYC: 30
D6C1  A9 00     LDA                             A:40 X:33 Y:C6 P:A4 SP:FA CYC: 39
D6C3  8D 78 06  STA                             A:00 X:33 Y:C6 P:26 SP:FA CYC: 45
D6C6  68        PLA                             A:00 X:33 Y:C6 P:26 SP:FA CYC: 57
D6C7  20 B2 F8  JSR                             A:40 X:33 Y:C6 P:24 SP:FB CYC: 69
F8B2  A9 80     LDA                             A:40 X:33 Y:C6 P:24 SP:F9 CYC: 87
F8B4  60        RTS                             A:80 X:33 Y:C6 P:A4 SP:F9 CYC: 93
D6CA  CD 78 06  CMP                             A:80 X:33 Y:C6 P:A4 SP:FB CYC:111
D6CD  20 B5 F8  JSR                             A:80 X:33 Y:C6 P:A5 SP:FB CYC:123
F8B5  F0 05     BEQ                             A:80 X:33 Y:C6 P:A5 SP:F9 CYC:141
F8B7  10 03     BPL                             A:80 X:33 Y:C6 P:A5 SP:F9 CYC:147
F8B9  90 01     BCC                             A:80 X:33 Y:C6 P:A5 SP:F9 CYC:153
F8BB  60        RTS                             A:80 X:33 Y:C6 P:A5 SP:F9 CYC:159
D6D0  C8        INY                             A:80 X:33 Y:C6 P:A5 SP:FB CYC:177
D6D1  48        PHA                             A:80 X:33 Y:C7 P:A5 SP:FB CYC:183
D6D2  A9 80     LDA                             A:80 X:33 Y:C7 P:A5 SP:FA CYC:192
D6D4  8D 78 06  STA                             A:80 X:33 Y:C7 P:A5 SP:FA CYC:198
D6D7  68        PLA                             A:80 X:33 Y:C7 P:A5 SP:FA CYC:210
D6D8  CD 78 06  CMP                             A:80 X:33 Y:C7 P:A5 SP:FB CYC:222
D6DB  20 BF F8  JSR                             A:80 X:33 Y:C7 P:27 SP:FB CYC:234
F8BF  D0 05     BNE                             A:80 X:33 Y:C7 P:27 SP:F9 CYC:252
F8C1  30 03     BMI                             A:80 X:33 Y:C7 P:27 SP:F9 CYC:258
F8C3  90 01     BCC                             A:80 X:33 Y:C7 P:27 SP:F9 CYC:264
F8C5  60        RTS                             A:80 X:33 Y:C7 P:27 SP:F9 CYC:270
D6DE  C8        INY                             A:80 X:33 Y:C7 P:27 SP:FB CYC:288
D6DF  48        PHA                             A:80 X:33 Y:C8 P:A5 SP:FB CYC:294
D6E0  A9 81     LDA                             A:80 X:33 Y:C8 P:A5 SP:FA CYC:303
D6E2  8D 78 06  STA                             A:81 X:33 Y:C8 P:A5 SP:FA CYC:309
D6E5  68        PLA                             A:81 X:33 Y:C8 P:A5 SP:FA CYC:321
D6E6  CD 78 06  CMP                             A:80 X:33 Y:C8 P:A5 SP:FB CYC:333
D6E9  20 C9 F8  JSR                             A:80 X:33 Y:C8 P:A4 SP:FB CYC:  4
F8C9  B0 05     BCS                             A:80 X:33 Y:C8 P:A4 SP:F9 CYC: 22
F8CB  F0 03     BEQ                             A:80 X:33 Y:C8 P:A4 SP:F9 CYC: 28
F8CD  10 01     BPL                             A:80 X:33 Y:C8 P:A4 SP:F9 CYC: 34
F8CF  60        RTS                             A:80 X:33 Y:C8 P:A4 SP:F9 CYC: 40
D6EC  C8        INY                             A:80 X:33 Y:C8 P:A4 SP:FB CYC: 58
D6ED  48        PHA                             A:80 X:33 Y:C9 P:A4 SP:FB CYC: 64
D6EE  A9 7F     LDA                             A:80 X:33 Y:C9 P:A4 SP:FA CYC: 73
D6F0  8D 78 06  STA                             A:7F X:33 Y:C9 P:24 SP:FA CYC: 79
D6F3  68        PLA                             A:7F X:33 Y:C9 P:24 SP:FA CYC: 91
D6F4  CD 78 06  CMP                             A:80 X:33 Y:C9 P:A4 SP:FB CYC:103
D6F7  20 D3 F8  JSR                             A:80 X:33 Y:C9 P:25 SP:FB CYC:115
F8D3  90 05     BCC                             A:80 X:33 Y:C9 P:25 SP:F9 CYC:133
F8D5  F0 03     BEQ                             A:80 X:33 Y:C9 P:25 SP:F9 CYC:139
F8D7  30 01     BMI                             A:80 X:33 Y:C9 P:25 SP:F9 CYC:145
F8D9  60        RTS                             A:80 X:33 Y:C9 P:25 SP:F9 CYC:151
D6FA  C8        INY                             A:80 X:33 Y:C9 P:25 SP:FB CYC:169
D6FB  A9 40     LDA                             A:80 X:33 Y:CA P:A5 SP:FB CYC:175
D6FD  8D 78 06  STA                             A:40 X:33 Y:CA P:25 SP:FB CYC:181
D700  20 31 F9  JSR                             A:40 X:33 Y:CA P:25 SP:FB CYC:193
F931  24 01     BIT                             A:40 X:33 Y:CA P:25 SP:F9 CYC:211
F933  A9 40     LDA                             A:40 X:33 Y:CA P:E5 SP:F9 CYC:220
F935  38        SEC                             A:40 X:33 Y:CA P:65 SP:F9 CYC:226
F936  60        RTS                             A:40 X:33 Y:CA P:65 SP:F9 CYC:232
D703  ED 78 06  SBC                             A:40 X:33 Y:CA P:65 SP:FB CYC:250
D706  20 37 F9  JSR                             A:00 X:33 Y:CA P:27 SP:FB CYC:262
F937  30 0B     BMI                             A:00 X:33 Y:CA P:27 SP:F9 CYC:280
F939  90 09     BCC                             A:00 X:33 Y:CA P:27 SP:F9 CYC:286
F93B  D0 07     BNE                             A:00 X:33 Y:CA P:27 SP:F9 CYC:292
F93D  70 05     BVS                             A:00 X:33 Y:CA P:27 SP:F9 CYC:298
F93F  C9 00     CMP                             A:00 X:33 Y:CA P:27 SP:F9 CYC:304
F941  D0 01     BNE                             A:00 X:33 Y:CA P:27 SP:F9 CYC:310
F943  60        RTS                             A:00 X:33 Y:CA P:27 SP:F9 CYC:316
D709  C8        INY                             A:00 X:33 Y:CA P:27 SP:FB CYC:334
D70A  A9 3F     LDA                             A:00 X:33 Y:CB P:A5 SP:FB CYC:340
D70C  8D 78 06  STA                             A:3F X:33 Y:CB P:25 SP:FB CYC:  5
D70F  20 47 F9  JSR                             A:3F X:33 Y:CB P:25 SP:FB CYC: 17
F947  B8        CLV                             A:3F X:33 Y:CB P:25 SP:F9 CYC: 35
F948  38        SEC                             A:3F X:33 Y:CB P:25 SP:F9 CYC: 41
F949  A9 40     LDA                             A:3F X:33 Y:CB P:25 SP:F9 CYC: 47
F94B  60        RTS                             A:40 X:33 Y:CB P:25 SP:F9 CYC: 53
D712  ED 78 06  SBC                             A:40 X:33 Y:CB P:25 SP:FB CYC: 71
D715  20 4C F9  JSR                             A:01 X:33 Y:CB P:25 SP:FB CYC: 83
F94C  F0 0B     BEQ                             A:01 X:33 Y:CB P:25 SP:F9 CYC:101
F94E  30 09     BMI                             A:01 X:33 Y:CB P:25 SP:F9 CYC:107
F950  90 07     BCC                             A:01 X:33 Y:CB P:25 SP:F9 CYC:113
F952  70 05     BVS                             A:01 X:33 Y:CB P:25 SP:F9 CYC:119
F954  C9 01     CMP                             A:01 X:33 Y:CB P:25 SP:F9 CYC:125
F956  D0 01     BNE                             A:01 X:33 Y:CB P:27 SP:F9 CYC:131
F958  60        RTS                             A:01 X:33 Y:CB P:27 SP:F9 CYC:137
D718  C8        INY                             A:01 X:33 Y:CB P:27 SP:FB CYC:155
D719  A9 41     LDA                             A:01 X:33 Y:CC P:A5 SP:FB CYC:161
D71B  8D 78 06  STA                             A:41 X:33 Y:CC P:25 SP:FB CYC:167
D71E  20 5C F9  JSR                             A:41 X:33 Y:CC P:25 SP:FB CYC:179
F95C  A9 40     LDA                             A:41 X:33 Y:CC P:25 SP:F9 CYC:197
F95E  38        SEC                             A:40 X:33 Y:CC P:25 SP:F9 CYC:203
F95F  24 01     BIT                             A:40 X:33 Y:CC P:25 SP:F9 CYC:209
F961  60        RTS                             A:40 X:33 Y:CC P:E5 SP:F9 CYC:218
D721  ED 78 06  SBC                             A:40 X:33 Y:CC P:E5 SP:FB CYC:236
D724  20 62 F9  JSR                             A:FF X:33 Y:CC P:A4 SP:FB CYC:248
F962  B0 0B     BCS                             A:FF X:33 Y:CC P:A4 SP:F9 CYC:266
F964  F0 09     BEQ                             A:FF X:33 Y:CC P:A4 SP:F9 CYC:272
F966  10 07     BPL                             A:FF X:33 Y:CC P:A4 SP:F9 CYC:278
F968  70 05     BVS                             A:FF X:33 Y:CC P:A4 SP:F9 CYC:284
F96A  C9 FF     CMP                             A:FF X:33 Y:CC P:A4 SP:F9 CYC:290
F96C  D0 01     BNE                             A:FF X:33 Y:CC P:27 SP:F9 CYC:296
F96E  60        RTS                             A:FF X:33 Y:CC P:27 SP:F9 CYC:302
D727  C8        INY                             A:FF X:33 Y:CC P:27 SP:FB CYC:320
D728  A9 00     LDA                             A:FF X:33 Y:CD P:A5 SP:FB CYC:326
D72A  8D 78 06  STA                             A:00 X:33 Y:CD P:27 SP:FB CYC:332
D72D  20 72 F9  JSR                             A:00 X:33 Y:CD P:27 SP:FB CYC:  3
F972  18        CLC                             A:00 X:33 Y:CD P:27 SP:F9 CYC: 21
F973  A9 80     LDA                             A:00 X:33 Y:CD P:26 SP:F9 CYC: 27
F975  60        RTS                             A:80 X:33 Y:CD P:A4 SP:F9 CYC: 33
D730  ED 78 06  SBC                             A:80 X:33 Y:CD P:A4 SP:FB CYC: 51
D733  20 76 F9  JSR                             A:7F X:33 Y:CD P:65 SP:FB CYC: 63
F976  90 05     BCC                             A:7F X:33 Y:CD P:65 SP:F9 CYC: 81
F978  C9 7F     CMP                             A:7F X:33 Y:CD P:65 SP:F9 CYC: 87
F97A  D0 01     BNE                             A:7F X:33 Y:CD P:67 SP:F9 CYC: 93
F97C  60        RTS                             A:7F X:33 Y:CD P:67 SP:F9 CYC: 99
D736  C8        INY                             A:7F X:33 Y:CD P:67 SP:FB CYC:117
D737  A9 7F     LDA                             A:7F X:33 Y:CE P:E5 SP:FB CYC:123
D739  8D 78 06  STA                             A:7F X:33 Y:CE P:65 SP:FB CYC:129
D73C  20 80 F9  JSR                             A:7F X:33 Y:CE P:65 SP:FB CYC:141
F980  38        SEC                             A:7F X:33 Y:CE P:65 SP:F9 CYC:159
F981  A9 81     LDA                             A:7F X:33 Y:CE P:65 SP:F9 CYC:165
F983  60        RTS                             A:81 X:33 Y:CE P:E5 SP:F9 CYC:171
D73F  ED 78 06  SBC                             A:81 X:33 Y:CE P:E5 SP:FB CYC:189
D742  20 84 F9  JSR                             A:02 X:33 Y:CE P:65 SP:FB CYC:201
F984  50 07     BVC                             A:02 X:33 Y:CE P:65 SP:F9 CYC:219
F986  90 05     BCC                             A:02 X:33 Y:CE P:65 SP:F9 CYC:225
F988  C9 02     CMP                             A:02 X:33 Y:CE P:65 SP:F9 CYC:231
F98A  D0 01     BNE                             A:02 X:33 Y:CE P:67 SP:F9 CYC:237
F98C  60        RTS                             A:02 X:33 Y:CE P:67 SP:F9 CYC:243
D745  C8        INY                             A:02 X:33 Y:CE P:67 SP:FB CYC:261
D746  A9 40     LDA                             A:02 X:33 Y:CF P:E5 SP:FB CYC:267
D748  8D 78 06  STA                             A:40 X:33 Y:CF P:65 SP:FB CYC:273
D74B  20 89 F8  JSR                             A:40 X:33 Y:CF P:65 SP:FB CYC:285
F889  24 01     BIT                             A:40 X:33 Y:CF P:65 SP:F9 CYC:303
F88B  A9 40     LDA                             A:40 X:33 Y:CF P:E5 SP:F9 CYC:312
F88D  60        RTS                             A:40 X:33 Y:CF P:65 SP:F9 CYC:318
D74E  AA        TAX                             A:40 X:33 Y:CF P:65 SP:FB CYC:336
D74F  EC 78 06  CPX                             A:40 X:40 Y:CF P:65 SP:FB CYC:  1
D752  20 8E F8  JSR                             A:40 X:40 Y:CF P:67 SP:FB CYC: 13
F88E  30 07     BMI                             A:40 X:40 Y:CF P:67 SP:F9 CYC: 31
F890  90 05     BCC                             A:40 X:40 Y:CF P:67 SP:F9 CYC: 37
F892  D0 03     BNE                             A:40 X:40 Y:CF P:67 SP:F9 CYC: 43
F894  50 01     BVC                             A:40 X:40 Y:CF P:67 SP:F9 CYC: 49
F896  60        RTS                             A:40 X:40 Y:CF P:67 SP:F9 CYC: 55
D755  C8        INY                             A:40 X:40 Y:CF P:67 SP:FB CYC: 73
D756  A9 3F     LDA                             A:40 X:40 Y:D0 P:E5 SP:FB CYC: 79
D758  8D 78 06  STA                             A:3F X:40 Y:D0 P:65 SP:FB CYC: 85
D75B  20 9A F8  JSR                             A:3F X:40 Y:D0 P:65 SP:FB CYC: 97
F89A  B8        CLV                             A:3F X:40 Y:D0 P:65 SP:F9 CYC:115
F89B  60        RTS                             A:3F X:40 Y:D0 P:25 SP:F9 CYC:121
D75E  EC 78 06  CPX                             A:3F X:40 Y:D0 P:25 SP:FB CYC:139
D761  20 9C F8  JSR                             A:3F X:40 Y:D0 P:25 SP:FB CYC:151
F89C  F0 07     BEQ                             A:3F X:40 Y:D0 P:25 SP:F9 CYC:169
F89E  30 05     BMI                             A:3F X:40 Y:D0 P:25 SP:F9 CYC:175
F8A0  90 03     BCC                             A:3F X:40 Y:D0 P:25 SP:F9 CYC:181
F8A2  70 01     BVS                             A:3F X:40 Y:D0 P:25 SP:F9 CYC:187
F8A4  60        RTS                             A:3F X:40 Y:D0 P:25 SP:F9 CYC:193
D764  C8        INY                             A:3F X:40 Y:D0 P:25 SP:FB CYC:211
D765  A9 41     LDA                             A:3F X:40 Y:D1 P:A5 SP:FB CYC:217
D767  8D 78 06  STA                             A:41 X:40 Y:D1 P:25 SP:FB CYC:223
D76A  EC 78 06  CPX                             A:41 X:40 Y:D1 P:25 SP:FB CYC:235
D76D  20 A8 F8  JSR                             A:41 X:40 Y:D1 P:A4 SP:FB CYC:247
F8A8  F0 05     BEQ                             A:41 X:40 Y:D1 P:A4 SP:F9 CYC:265
F8AA  10 03     BPL                             A:41 X:40 Y:D1 P:A4 SP:F9 CYC:271
F8AC  10 01     BPL                             A:41 X:40 Y:D1 P:A4 SP:F9 CYC:277
F8AE  60        RTS                             A:41 X:40 Y:D1 P:A4 SP:F9 CYC:283
D770  C8        INY                             A:41 X:40 Y:D1 P:A4 SP:FB CYC:301
D771  A9 00     LDA                             A:41 X:40 Y:D2 P:A4 SP:FB CYC:307
D773  8D 78 06  STA                             A:00 X:40 Y:D2 P:26 SP:FB CYC:313
D776  20 B2 F8  JSR                             A:00 X:40 Y:D2 P:26 SP:FB CYC:325
F8B2  A9 80     LDA                             A:00 X:40 Y:D2 P:26 SP:F9 CYC:  2
F8B4  60        RTS                             A:80 X:40 Y:D2 P:A4 SP:F9 CYC:  8
D779  AA        TAX                             A:80 X:40 Y:D2 P:A4 SP:FB CYC: 26
D77A  EC 78 06  CPX                             A:80 X:80 Y:D2 P:A4 SP:FB CYC: 32
D77D  20 B5 F8  JSR                             A:80 X:80 Y:D2 P:A5 SP:FB CYC: 44
F8B5  F0 05     BEQ                             A:80 X:80 Y:D2 P:A5 SP:F9 CYC: 62
F8B7  10 03     BPL                             A:80 X:80 Y:D2 P:A5 SP:F9 CYC: 68
F8B9  90 01     BCC                             A:80 X:80 Y:D2 P:A5 SP:F9 CYC: 74
F8BB  60        RTS                             A:80 X:80 Y:D2 P:A5 SP:F9 CYC: 80
D780  C8        INY                             A:80 X:80 Y:D2 P:A5 SP:FB CYC: 98
D781  A9 80     LDA                             A:80 X:80 Y:D3 P:A5 SP:FB CYC:104
D783  8D 78 06  STA                             A:80 X:80 Y:D3 P:A5 SP:FB CYC:110
D786  EC 78 06  CPX                             A:80 X:80 Y:D3 P:A5 SP:FB CYC:122
D789  20 BF F8  JSR                             A:80 X:80 Y:D3 P:27 SP:FB CYC:134
F8BF  D0 05     BNE                             A:80 X:80 Y:D3 P:27 SP:F9 CYC:152
F8C1  30 03     BMI                             A:80 X:80 Y:D3 P:27 SP:F9 CYC:158
F8C3  90 01     BCC                             A:80 X:80 Y:D3 P:27 SP:F9 CYC:164
F8C5  60        RTS                             A:80 X:80 Y:D3 P:27 SP:F9 CYC:170
D78C  C8        INY                             A:80 X:80 Y:D3 P:27 SP:FB CYC:188
D78D  A9 81     LDA                             A:80 X:80 Y:D4 P:A5 SP:FB CYC:194
D78F  8D 78 06  STA                             A:81 X:80 Y:D4 P:A5 SP:FB CYC:200
D792  EC 78 06  CPX                             A:81 X:80 Y:D4 P:A5 SP:FB CYC:212
D795  20 C9 F8  JSR                             A:81 X:80 Y:D4 P:A4 SP:FB CYC:224
F8C9  B0 05     BCS                             A:81 X:80 Y:D4 P:A4 SP:F9 CYC:242
F8CB  F0 03     BEQ                             A:81 X:80 Y:D4 P:A4 SP:F9 CYC:248
F8CD  10 01     BPL                             A:81 X:80 Y:D4 P:A4 SP:F9 CYC:254
F8CF  60        RTS                             A:81 X:80 Y:D4 P:A4 SP:F9 CYC:260
D798  C8        INY                             A:81 X:80 Y:D4 P:A4 SP:FB CYC:278
D799  A9 7F     LDA                             A:81 X:80 Y:D5 P:A4 SP:FB CYC:284
D79B  8D 78 06  STA                             A:7F X:80 Y:D5 P:24 SP:FB CYC:290
D79E  EC 78 06  CPX                             A:7F X:80 Y:D5 P:24 SP:FB CYC:302
D7A1  20 D3 F8  JSR                             A:7F X:80 Y:D5 P:25 SP:FB CYC:314
F8D3  90 05     BCC                             A:7F X:80 Y:D5 P:25 SP:F9 CYC:332
F8D5  F0 03     BEQ                             A:7F X:80 Y:D5 P:25 SP:F9 CYC:338
F8D7  30 01     BMI                             A:7F X:80 Y:D5 P:25 SP:F9 CYC:  3
F8D9  60        RTS                             A:7F X:80 Y:D5 P:25 SP:F9 CYC:  9
D7A4  C8        INY                             A:7F X:80 Y:D5 P:25 SP:FB CYC: 27
D7A5  98        TYA                             A:7F X:80 Y:D6 P:A5 SP:FB CYC: 33
D7A6  AA        TAX                             A:D6 X:80 Y:D6 P:A5 SP:FB CYC: 39
D7A7  A9 40     LDA                             A:D6 X:D6 Y:D6 P:A5 SP:FB CYC: 45
D7A9  8D 78 06  STA                             A:40 X:D6 Y:D6 P:25 SP:FB CYC: 51
D7AC  20 DD F8  JSR                             A:40 X:D6 Y:D6 P:25 SP:FB CYC: 63
F8DD  24 01     BIT                             A:40 X:D6 Y:D6 P:25 SP:F9 CYC: 81
F8DF  A0 40     LDY                             A:40 X:D6 Y:D6 P:E5 SP:F9 CYC: 90
F8E1  60        RTS                             A:40 X:D6 Y:40 P:65 SP:F9 CYC: 96
D7AF  CC 78 06  CPY                             A:40 X:D6 Y:40 P:65 SP:FB CYC:114
D7B2  20 E2 F8  JSR                             A:40 X:D6 Y:40 P:67 SP:FB CYC:126
F8E2  30 07     BMI                             A:40 X:D6 Y:40 P:67 SP:F9 CYC:144
F8E4  90 05     BCC                             A:40 X:D6 Y:40 P:67 SP:F9 CYC:150
F8E6  D0 03     BNE                             A:40 X:D6 Y:40 P:67 SP:F9 CYC:156
F8E8  50 01     BVC                             A:40 X:D6 Y:40 P:67 SP:F9 CYC:162
F8EA  60        RTS                             A:40 X:D6 Y:40 P:67 SP:F9 CYC:168
D7B5  E8        INX                             A:40 X:D6 Y:40 P:67 SP:FB CYC:186
D7B6  A9 3F     LDA                             A:40 X:D7 Y:40 P:E5 SP:FB CYC:192
D7B8  8D 78 06  STA                             A:3F X:D7 Y:40 P:65 SP:FB CYC:198
D7BB  20 EE F8  JSR                             A:3F X:D7 Y:40 P:65 SP:FB CYC:210
F8EE  B8        CLV                             A:3F X:D7 Y:40 P:65 SP:F9 CYC:228
F8EF  60        RTS                             A:3F X:D7 Y:40 P:25 SP:F9 CYC:234
D7BE  CC 78 06  CPY                             A:3F X:D7 Y:40 P:25 SP:FB CYC:252
D7C1  20 F0 F8  JSR                             A:3F X:D7 Y:40 P:25 SP:FB CYC:264
F8F0  F0 07     BEQ                             A:3F X:D7 Y:40 P:25 SP:F9 CYC:282
F8F2  30 05     BMI                             A:3F X:D7 Y:40 P:25 SP:F9 CYC:288
F8F4  90 03     BCC                             A:3F X:D7 Y:40 P:25 SP:F9 CYC:294
F8F6  70 01     BVS                             A:3F X:D7 Y:40 P:25 SP:F9 CYC:300
F8F8  60        RTS                             A:3F X:D7 Y:40 P:25 SP:F9 CYC:306
D7C4  E8        INX                             A:3F X:D7 Y:40 P:25 SP:FB CYC:324
D7C5  A9 41     LDA                             A:3F X:D8 Y:40 P:A5 SP:FB CYC:330
D7C7  8D 78 06  STA                             A:41 X:D8 Y:40 P:25 SP:FB CYC:336
D7CA  CC 78 06  CPY                             A:41 X:D8 Y:40 P:25 SP:FB CYC:  7
D7CD  20 FC F8  JSR                             A:41 X:D8 Y:40 P:A4 SP:FB CYC: 19
F8FC  F0 05     BEQ                             A:41 X:D8 Y:40 P:A4 SP:F9 CYC: 37
F8FE  10 03     BPL                             A:41 X:D8 Y:40 P:A4 SP:F9 CYC: 43
F900  10 01     BPL                             A:41 X:D8 Y:40 P:A4 SP:F9 CYC: 49
F902  60        RTS                             A:41 X:D8 Y:40 P:A4 SP:F9 CYC: 55
D7D0  E8        INX                             A:41 X:D8 Y:40 P:A4 SP:FB CYC: 73
D7D1  A9 00     LDA                             A:41 X:D9 Y:40 P:A4 SP:FB CYC: 79
D7D3  8D 78 06  STA                             A:00 X:D9 Y:40 P:26 SP:FB CYC: 85
D7D6  20 06 F9  JSR                             A:00 X:D9 Y:40 P:26 SP:FB CYC: 97
F906  A0 80     LDY                             A:00 X:D9 Y:40 P:26 SP:F9 CYC:115
F908  60        RTS                             A:00 X:D9 Y:80 P:A4 SP:F9 CYC:121
D7D9  CC 78 06  CPY                             A:00 X:D9 Y:80 P:A4 SP:FB CYC:139
D7DC  20 09 F9  JSR                             A:00 X:D9 Y:80 P:A5 SP:FB CYC:151
F909  F0 05     BEQ                             A:00 X:D9 Y:80 P:A5 SP:F9 CYC:169
F90B  10 03     BPL                             A:00 X:D9 Y:80 P:A5 SP:F9 CYC:175
F90D  90 01     BCC                             A:00 X:D9 Y:80 P:A5 SP:F9 CYC:181
F90F  60        RTS                             A:00 X:D9 Y:80 P:A5 SP:F9 CYC:187
D7DF  E8        INX                             A:00 X:D9 Y:80 P:A5 SP:FB CYC:205
D7E0  A9 80     LDA                             A:00 X:DA Y:80 P:A5 SP:FB CYC:211
D7E2  8D 78 06  STA                             A:80 X:DA Y:80 P:A5 SP:FB CYC:217
D7E5  CC 78 06  CPY                             A:80 X:DA Y:80 P:A5 SP:FB CYC:229
D7E8  20 13 F9  JSR                             A:80 X:DA Y:80 P:27 SP:FB CYC:241
F913  D0 05     BNE                             A:80 X:DA Y:80 P:27 SP:F9 CYC:259
F915  30 03     BMI                             A:80 X:DA Y:80 P:27 SP:F9 CYC:265
F917  90 01     BCC                             A:80 X:DA Y:80 P:27 SP:F9 CYC:271
F919  60        RTS                             A:80 X:DA Y:80 P:27 SP:F9 CYC:277
D7EB  E8        INX                             A:80 X:DA Y:80 P:27 SP:FB CYC:295
D7EC  A9 81     LDA                             A:80 X:DB Y:80 P:A5 SP:FB CYC:301
D7EE  8D 78 06  STA                             A:81 X:DB Y:80 P:A5 SP:FB CYC:307
D7F1  CC 78 06  CPY                             A:81 X:DB Y:80 P:A5 SP:FB CYC:319
D7F4  20 1D F9  JSR                             A:81 X:DB Y:80 P:A4 SP:FB CYC:331
F91D  B0 05     BCS                             A:81 X:DB Y:80 P:A4 SP:F9 CYC:  8
F91F  F0 03     BEQ                             A:81 X:DB Y:80 P:A4 SP:F9 CYC: 14
F921  10 01     BPL                             A:81 X:DB Y:80 P:A4 SP:F9 CYC: 20
F923  60        RTS                             A:81 X:DB Y:80 P:A4 SP:F9 CYC: 26
D7F7  E8        INX                             A:81 X:DB Y:80 P:A4 SP:FB CYC: 44
D7F8  A9 7F     LDA                             A:81 X:DC Y:80 P:A4 SP:FB CYC: 50
D7FA  8D 78 06  STA                             A:7F X:DC Y:80 P:24 SP:FB CYC: 56
D7FD  CC 78 06  CPY                             A:7F X:DC Y:80 P:24 SP:FB CYC: 68
D800  20 27 F9  JSR                             A:7F X:DC Y:80 P:25 SP:FB CYC: 80
F927  90 05     BCC                             A:7F X:DC Y:80 P:25 SP:F9 CYC: 98
F929  F0 03     BEQ                             A:7F X:DC Y:80 P:25 SP:F9 CYC:104
F92B  30 01     BMI                             A:7F X:DC Y:80 P:25 SP:F9 CYC:110
F92D  60        RTS                             A:7F X:DC Y:80 P:25 SP:F9 CYC:116
D803  E8        INX                             A:7F X:DC Y:80 P:25 SP:FB CYC:134
D804  8A        TXA                             A:7F X:DD Y:80 P:A5 SP:FB CYC:140
D805  A8        TAY                             A:DD X:DD Y:80 P:A5 SP:FB CYC:146
D806  20 90 F9  JSR                             A:DD X:DD Y:DD P:A5 SP:FB CYC:152
F990  A2 55     LDX                             A:DD X:DD Y:DD P:A5 SP:F9 CYC:170
F992  A9 FF     LDA                             A:DD X:55 Y:DD P:25 SP:F9 CYC:176
F994  85 01     STA                             A:FF X:55 Y:DD P:A5 SP:F9 CYC:182
F996  EA        NOP                             A:FF X:55 Y:DD P:A5 SP:F9 CYC:191
F997  24 01     BIT                             A:FF X:55 Y:DD P:A5 SP:F9 CYC:197
F999  38        SEC                             A:FF X:55 Y:DD P:E5 SP:F9 CYC:206
F99A  A9 01     LDA                             A:FF X:55 Y:DD P:E5 SP:F9 CYC:212
F99C  60        RTS                             A:01 X:55 Y:DD P:65 SP:F9 CYC:218
D809  8D 78 06  STA                             A:01 X:55 Y:DD P:65 SP:FB CYC:236
D80C  4E 78 06  LSR                             A:01 X:55 Y:DD P:65 SP:FB CYC:248
D80F  AD 78 06  LDA                             A:01 X:55 Y:DD P:67 SP:FB CYC:266
D812  20 9D F9  JSR                             A:00 X:55 Y:DD P:67 SP:FB CYC:278
F99D  90 1B     BCC                             A:00 X:55 Y:DD P:67 SP:F9 CYC:296
F99F  D0 19     BNE                             A:00 X:55 Y:DD P:67 SP:F9 CYC:302
F9A1  30 17     BMI                             A:00 X:55 Y:DD P:67 SP:F9 CYC:308
F9A3  50 15     BVC                             A:00 X:55 Y:DD P:67 SP:F9 CYC:314
F9A5  C9 00     CMP                             A:00 X:55 Y:DD P:67 SP:F9 CYC:320
F9A7  D0 11     BNE                             A:00 X:55 Y:DD P:67 SP:F9 CYC:326
F9A9  B8        CLV                             A:00 X:55 Y:DD P:67 SP:F9 CYC:332
F9AA  A9 AA     LDA                             A:00 X:55 Y:DD P:27 SP:F9 CYC:338
F9AC  60        RTS                             A:AA X:55 Y:DD P:A5 SP:F9 CYC:  3
D815  C8        INY                             A:AA X:55 Y:DD P:A5 SP:FB CYC: 21
D816  8D 78 06  STA                             A:AA X:55 Y:DE P:A5 SP:FB CYC: 27
D819  4E 78 06  LSR                             A:AA X:55 Y:DE P:A5 SP:FB CYC: 39
D81C  AD 78 06  LDA                             A:AA X:55 Y:DE P:24 SP:FB CYC: 57
D81F  20 AD F9  JSR                             A:55 X:55 Y:DE P:24 SP:FB CYC: 69
F9AD  B0 0B     BCS                             A:55 X:55 Y:DE P:24 SP:F9 CYC: 87
F9AF  F0 09     BEQ                             A:55 X:55 Y:DE P:24 SP:F9 CYC: 93
F9B1  30 07     BMI                             A:55 X:55 Y:DE P:24 SP:F9 CYC: 99
F9B3  70 05     BVS                             A:55 X:55 Y:DE P:24 SP:F9 CYC:105
F9B5  C9 55     CMP                             A:55 X:55 Y:DE P:24 SP:F9 CYC:111
F9B7  D0 01     BNE                             A:55 X:55 Y:DE P:27 SP:F9 CYC:117
F9B9  60        RTS                             A:55 X:55 Y:DE P:27 SP:F9 CYC:123
D822  C8        INY                             A:55 X:55 Y:DE P:27 SP:FB CYC:141
D823  20 BD F9  JSR                             A:55 X:55 Y:DF P:A5 SP:FB CYC:147
F9BD  24 01     BIT                             A:55 X:55 Y:DF P:A5 SP:F9 CYC:165
F9BF  38        SEC                             A:55 X:55 Y:DF P:E5 SP:F9 CYC:174
F9C0  A9 80     LDA                             A:55 X:55 Y:DF P:E5 SP:F9 CYC:180
F9C2  60        RTS                             A:80 X:55 Y:DF P:E5 SP:F9 CYC:186
D826  8D 78 06  STA                             A:80 X:55 Y:DF P:E5 SP:FB CYC:204
D829  0E 78 06  ASL                             A:80 X:55 Y:DF P:E5 SP:FB CYC:216
D82C  AD 78 06  LDA                             A:80 X:55 Y:DF P:67 SP:FB CYC:234
D82F  20 C3 F9  JSR                             A:00 X:55 Y:DF P:67 SP:FB CYC:246
F9C3  90 1C     BCC                             A:00 X:55 Y:DF P:67 SP:F9 CYC:264
F9C5  D0 1A     BNE                             A:00 X:55 Y:DF P:67 SP:F9 CYC:270
F9C7  30 18     BMI                             A:00 X:55 Y:DF P:67 SP:F9 CYC:276
F9C9  50 16     BVC                             A:00 X:55 Y:DF P:67 SP:F9 CYC:282
F9CB  C9 00     CMP                             A:00 X:55 Y:DF P:67 SP:F9 CYC:288
F9CD  D0 12     BNE                             A:00 X:55 Y:DF P:67 SP:F9 CYC:294
F9CF  B8        CLV                             A:00 X:55 Y:DF P:67 SP:F9 CYC:300
F9D0  A9 55     LDA                             A:00 X:55 Y:DF P:27 SP:F9 CYC:306
F9D2  38        SEC                             A:55 X:55 Y:DF P:25 SP:F9 CYC:312
F9D3  60        RTS                             A:55 X:55 Y:DF P:25 SP:F9 CYC:318
D832  C8        INY                             A:55 X:55 Y:DF P:25 SP:FB CYC:336
D833  8D 78 06  STA                             A:55 X:55 Y:E0 P:A5 SP:FB CYC:  1
D836  0E 78 06  ASL                             A:55 X:55 Y:E0 P:A5 SP:FB CYC: 13
D839  AD 78 06  LDA                             A:55 X:55 Y:E0 P:A4 SP:FB CYC: 31
D83C  20 D4 F9  JSR                             A:AA X:55 Y:E0 P:A4 SP:FB CYC: 43
F9D4  B0 0B     BCS                             A:AA X:55 Y:E0 P:A4 SP:F9 CYC: 61
F9D6  F0 09     BEQ                             A:AA X:55 Y:E0 P:A4 SP:F9 CYC: 67
F9D8  10 07     BPL                             A:AA X:55 Y:E0 P:A4 SP:F9 CYC: 73
F9DA  70 05     BVS                             A:AA X:55 Y:E0 P:A4 SP:F9 CYC: 79
F9DC  C9 AA     CMP                             A:AA X:55 Y:E0 P:A4 SP:F9 CYC: 85
F9DE  D0 01     BNE                             A:AA X:55 Y:E0 P:27 SP:F9 CYC: 91
F9E0  60        RTS                             A:AA X:55 Y:E0 P:27 SP:F9 CYC: 97
D83F  C8        INY                             A:AA X:55 Y:E0 P:27 SP:FB CYC:115
D840  20 E4 F9  JSR                             A:AA X:55 Y:E1 P:A5 SP:FB CYC:121
F9E4  24 01     BIT                             A:AA X:55 Y:E1 P:A5 SP:F9 CYC:139
F9E6  38        SEC                             A:AA X:55 Y:E1 P:E5 SP:F9 CYC:148
F9E7  A9 01     LDA                             A:AA X:55 Y:E1 P:E5 SP:F9 CYC:154
F9E9  60        RTS                             A:01 X:55 Y:E1 P:65 SP:F9 CYC:160
D843  8D 78 06  STA                             A:01 X:55 Y:E1 P:65 SP:FB CYC:178
D846  6E 78 06  ROR                             A:01 X:55 Y:E1 P:65 SP:FB CYC:190
D849  AD 78 06  LDA                             A:01 X:55 Y:E1 P:E5 SP:FB CYC:208
D84C  20 EA F9  JSR                             A:80 X:55 Y:E1 P:E5 SP:FB CYC:220
F9EA  90 1C     BCC                             A:80 X:55 Y:E1 P:E5 SP:F9 CYC:238
F9EC  F0 1A     BEQ                             A:80 X:55 Y:E1 P:E5 SP:F9 CYC:244
F9EE  10 18     BPL                             A:80 X:55 Y:E1 P:E5 SP:F9 CYC:250
F9F0  50 16     BVC                             A:80 X:55 Y:E1 P:E5 SP:F9 CYC:256
F9F2  C9 80     CMP                             A:80 X:55 Y:E1 P:E5 SP:F9 CYC:262
F9F4  D0 12     BNE                             A:80 X:55 Y:E1 P:67 SP:F9 CYC:268
F9F6  B8        CLV                             A:80 X:55 Y:E1 P:67 SP:F9 CYC:274
F9F7  18        CLC                             A:80 X:55 Y:E1 P:27 SP:F9 CYC:280
F9F8  A9 55     LDA                             A:80 X:55 Y:E1 P:26 SP:F9 CYC:286
F9FA  60        RTS                             A:55 X:55 Y:E1 P:24 SP:F9 CYC:292
D84F  C8        INY                             A:55 X:55 Y:E1 P:24 SP:FB CYC:310
D850  8D 78 06  STA                             A:55 X:55 Y:E2 P:A4 SP:FB CYC:316
D853  6E 78 06  ROR                             A:55 X:55 Y:E2 P:A4 SP:FB CYC:328
D856  AD 78 06  LDA                             A:55 X:55 Y:E2 P:25 SP:FB CYC:  5
D859  20 FB F9  JSR                             A:2A X:55 Y:E2 P:25 SP:FB CYC: 17
F9FB  90 0B     BCC                             A:2A X:55 Y:E2 P:25 SP:F9 CYC: 35
F9FD  F0 09     BEQ                             A:2A X:55 Y:E2 P:25 SP:F9 CYC: 41
F9FF  30 07     BMI                             A:2A X:55 Y:E2 P:25 SP:F9 CYC: 47
FA01  70 05     BVS                             A:2A X:55 Y:E2 P:25 SP:F9 CYC: 53
FA03  C9 2A     CMP                             A:2A X:55 Y:E2 P:25 SP:F9 CYC: 59
FA05  D0 01     BNE                             A:2A X:55 Y:E2 P:27 SP:F9 CYC: 65
FA07  60        RTS                             A:2A X:55 Y:E2 P:27 SP:F9 CYC: 71
D85C  C8        INY                             A:2A X:55 Y:E2 P:27 SP:FB CYC: 89
D85D  20 0A FA  JSR                             A:2A X:55 Y:E3 P:A5 SP:FB CYC: 95
FA0A  24 01     BIT                             A:2A X:55 Y:E3 P:A5 SP:F9 CYC:113
FA0C  38        SEC                             A:2A X:55 Y:E3 P:E5 SP:F9 CYC:122
FA0D  A9 80     LDA                             A:2A X:55 Y:E3 P:E5 SP:F9 CYC:128
FA0F  60        RTS                             A:80 X:55 Y:E3 P:E5 SP:F9 CYC:134
D860  8D 78 06  STA                             A:80 X:55 Y:E3 P:E5 SP:FB CYC:152
D863  2E 78 06  ROL                             A:80 X:55 Y:E3 P:E5 SP:FB CYC:164
D866  AD 78 06  LDA                             A:80 X:55 Y:E3 P:65 SP:FB CYC:182
D869  20 10 FA  JSR                             A:01 X:55 Y:E3 P:65 SP:FB CYC:194
FA10  90 1C     BCC                             A:01 X:55 Y:E3 P:65 SP:F9 CYC:212
FA12  F0 1A     BEQ                             A:01 X:55 Y:E3 P:65 SP:F9 CYC:218
FA14  30 18     BMI                             A:01 X:55 Y:E3 P:65 SP:F9 CYC:224
FA16  50 16     BVC                             A:01 X:55 Y:E3 P:65 SP:F9 CYC:230
FA18  C9 01     CMP                             A:01 X:55 Y:E3 P:65 SP:F9 CYC:236
FA1A  D0 12     BNE                             A:01 X:55 Y:E3 P:67 SP:F9 CYC:242
FA1C  B8        CLV                             A:01 X:55 Y:E3 P:67 SP:F9 CYC:248
FA1D  18        CLC                             A:01 X:55 Y:E3 P:27 SP:F9 CYC:254
FA1E  A9 55     LDA                             A:01 X:55 Y:E3 P:26 SP:F9 CYC:260
FA20  60        RTS                             A:55 X:55 Y:E3 P:24 SP:F9 CYC:266
D86C  C8        INY                             A:55 X:55 Y:E3 P:24 SP:FB CYC:284
D86D  8D 78 06  STA                             A:55 X:55 Y:E4 P:A4 SP:FB CYC:290
D870  2E 78 06  ROL                             A:55 X:55 Y:E4 P:A4 SP:FB CYC:302
D873  AD 78 06  LDA                             A:55 X:55 Y:E4 P:A4 SP:FB CYC:320
D876  20 21 FA  JSR                             A:AA X:55 Y:E4 P:A4 SP:FB CYC:332
FA21  B0 0B     BCS                             A:AA X:55 Y:E4 P:A4 SP:F9 CYC:  9
FA23  F0 09     BEQ                             A:AA X:55 Y:E4 P:A4 SP:F9 CYC: 15
FA25  10 07     BPL                             A:AA X:55 Y:E4 P:A4 SP:F9 CYC: 21
FA27  70 05     BVS                             A:AA X:55 Y:E4 P:A4 SP:F9 CYC: 27
FA29  C9 AA     CMP                             A:AA X:55 Y:E4 P:A4 SP:F9 CYC: 33
FA2B  D0 01     BNE                             A:AA X:55 Y:E4 P:27 SP:F9 CYC: 39
FA2D  60        RTS                             A:AA X:55 Y:E4 P:27 SP:F9 CYC: 45
D879  A9 FF     LDA                             A:AA X:55 Y:E4 P:27 SP:FB CYC: 63
D87B  8D 78 06  STA                             A:FF X:55 Y:E4 P:A5 SP:FB CYC: 69
D87E  85 01     STA                             A:FF X:55 Y:E4 P:A5 SP:FB CYC: 81
D880  24 01     BIT                             A:FF X:55 Y:E4 P:A5 SP:FB CYC: 90
D882  38        SEC                             A:FF X:55 Y:E4 P:E5 SP:FB CYC: 99
D883  EE 78 06  INC                             A:FF X:55 Y:E4 P:E5 SP:FB CYC:105
D886  D0 0D     BNE                             A:FF X:55 Y:E4 P:67 SP:FB CYC:123
D888  30 0B     BMI                             A:FF X:55 Y:E4 P:67 SP:FB CYC:129
D88A  50 09     BVC                             A:FF X:55 Y:E4 P:67 SP:FB CYC:135
D88C  90 07     BCC                             A:FF X:55 Y:E4 P:67 SP:FB CYC:141
D88E  AD 78 06  LDA                             A:FF X:55 Y:E4 P:67 SP:FB CYC:147
D891  C9 00     CMP                             A:100 X:55 Y:E4 P:67 SP:FB CYC:159
D893  F0 04     BEQ                             A:100 X:55 Y:E4 P:67 SP:FB CYC:165
D899  A9 7F     LDA                             A:100 X:55 Y:E4 P:67 SP:FB CYC:174
D89B  8D 78 06  STA                             A:7F X:55 Y:E4 P:65 SP:FB CYC:180
D89E  B8        CLV                             A:7F X:55 Y:E4 P:65 SP:FB CYC:192
D89F  18        CLC                             A:7F X:55 Y:E4 P:25 SP:FB CYC:198
D8A0  EE 78 06  INC                             A:7F X:55 Y:E4 P:24 SP:FB CYC:204
D8A3  F0 0D     BEQ                             A:7F X:55 Y:E4 P:A4 SP:FB CYC:222
D8A5  10 0B     BPL                             A:7F X:55 Y:E4 P:A4 SP:FB CYC:228
D8A7  70 09     BVS                             A:7F X:55 Y:E4 P:A4 SP:FB CYC:234
D8A9  B0 07     BCS                             A:7F X:55 Y:E4 P:A4 SP:FB CYC:240
D8AB  AD 78 06  LDA                             A:7F X:55 Y:E4 P:A4 SP:FB CYC:246
D8AE  C9 80     CMP                             A:80 X:55 Y:E4 P:A4 SP:FB CYC:258
D8B0  F0 04     BEQ                             A:80 X:55 Y:E4 P:27 SP:FB CYC:264
D8B6  A9 00     LDA                             A:80 X:55 Y:E4 P:27 SP:FB CYC:273
D8B8  8D 78 06  STA                             A:00 X:55 Y:E4 P:27 SP:FB CYC:279
D8BB  24 01     BIT                             A:00 X:55 Y:E4 P:27 SP:FB CYC:291
D8BD  38        SEC                             A:00 X:55 Y:E4 P:E7 SP:FB CYC:300
D8BE  CE 78 06  DEC                             A:00 X:55 Y:E4 P:E7 SP:FB CYC:306
D8C1  F0 0D     BEQ                             A:00 X:55 Y:E4 P:E5 SP:FB CYC:324
D8C3  10 0B     BPL                             A:00 X:55 Y:E4 P:E5 SP:FB CYC:330
D8C5  50 09     BVC                             A:00 X:55 Y:E4 P:E5 SP:FB CYC:336
D8C7  90 07     BCC                             A:00 X:55 Y:E4 P:E5 SP:FB CYC:  1
D8C9  AD 78 06  LDA                             A:00 X:55 Y:E4 P:E5 SP:FB CYC:  7
D8CC  C9 FF     CMP                             A:-1 X:55 Y:E4 P:E5 SP:FB CYC: 19
D8CE  F0 04     BEQ                             A:-1 X:55 Y:E4 P:66 SP:FB CYC: 25
D8D4  A9 80     LDA                             A:-1 X:55 Y:E4 P:66 SP:FB CYC: 34
D8D6  8D 78 06  STA                             A:80 X:55 Y:E4 P:E4 SP:FB CYC: 40
D8D9  B8        CLV                             A:80 X:55 Y:E4 P:E4 SP:FB CYC: 52
D8DA  18        CLC                             A:80 X:55 Y:E4 P:A4 SP:FB CYC: 58
D8DB  CE 78 06  DEC                             A:80 X:55 Y:E4 P:A4 SP:FB CYC: 64
D8DE  F0 0D     BEQ                             A:80 X:55 Y:E4 P:24 SP:FB CYC: 82
D8E0  30 0B     BMI                             A:80 X:55 Y:E4 P:24 SP:FB CYC: 88
D8E2  70 09     BVS                             A:80 X:55 Y:E4 P:24 SP:FB CYC: 94
D8E4  B0 07     BCS                             A:80 X:55 Y:E4 P:24 SP:FB CYC:100
D8E6  AD 78 06  LDA                             A:80 X:55 Y:E4 P:24 SP:FB CYC:106
D8E9  C9 7F     CMP                             A:7F X:55 Y:E4 P:24 SP:FB CYC:118
D8EB  F0 04     BEQ                             A:7F X:55 Y:E4 P:27 SP:FB CYC:124
D8F1  A9 01     LDA                             A:7F X:55 Y:E4 P:27 SP:FB CYC:133
D8F3  8D 78 06  STA                             A:01 X:55 Y:E4 P:25 SP:FB CYC:139
D8F6  CE 78 06  DEC                             A:01 X:55 Y:E4 P:25 SP:FB CYC:151
D8F9  F0 04     BEQ                             A:01 X:55 Y:E4 P:27 SP:FB CYC:169
D8FF  60        RTS                             A:01 X:55 Y:E4 P:27 SP:FB CYC:178
C618  20 00 D9  JSR                             A:01 X:55 Y:E4 P:27 SP:FD CYC:196
D900  A9 A3     LDA                             A:01 X:55 Y:E4 P:27 SP:FB CYC:214
D902  85 33     STA                             A:A3 X:55 Y:E4 P:A5 SP:FB CYC:220
D904  A9 89     LDA                             A:A3 X:55 Y:E4 P:A5 SP:FB CYC:229
D906  8D 00 03  STA                             A:89 X:55 Y:E4 P:A5 SP:FB CYC:235
D909  A9 12     LDA                             A:89 X:55 Y:E4 P:A5 SP:FB CYC:247
D90B  8D 45 02  STA                             A:12 X:55 Y:E4 P:25 SP:FB CYC:253
D90E  A9 FF     LDA                             A:12 X:55 Y:E4 P:25 SP:FB CYC:265
D910  85 01     STA                             A:FF X:55 Y:E4 P:A5 SP:FB CYC:271
D912  A2 65     LDX                             A:FF X:55 Y:E4 P:A5 SP:FB CYC:280
D914  A9 00     LDA                             A:FF X:65 Y:E4 P:25 SP:FB CYC:286
D916  85 89     STA                             A:00 X:65 Y:E4 P:27 SP:FB CYC:292
D918  A9 03     LDA                             A:00 X:65 Y:E4 P:27 SP:FB CYC:301
D91A  85 8A     STA                             A:03 X:65 Y:E4 P:25 SP:FB CYC:307
D91C  A0 00     LDY                             A:03 X:65 Y:E4 P:25 SP:FB CYC:316
D91E  38        SEC                             A:03 X:65 Y:00 P:27 SP:FB CYC:322
D91F  A9 00     LDA                             A:03 X:65 Y:00 P:27 SP:FB CYC:328
D921  B8        CLV                             A:00 X:65 Y:00 P:27 SP:FB CYC:334
D922  B1 89     LDA                             A:00 X:65 Y:00 P:27 SP:FB CYC:340
